; ModuleID = 'libsteve.cpp'
target datalayout = "e-m:e-i64:64-f80:128-n8:16:32:64-S128"
target triple = "x86_64-pc-linux-gnu"

%"struct.std::piecewise_construct_t" = type { i8 }
%"class.std::ios_base::Init" = type { i8 }
%"struct.__gnu_cxx::__ops::_Iter_less_iter" = type { i8 }
%"struct.__gnu_cxx::__ops::_Iter_less_val" = type { i8 }
%"struct.__gnu_cxx::__ops::_Val_less_iter" = type { i8 }
%"struct.__gnu_cxx::__ops::_Iter_equal_to_iter" = type { i8 }
%"struct.__gnu_cxx::__ops::_Iter_equal_to_val" = type { i8 }
%"class.std::exception" = type { i32 (...)** }
%"class.std::bad_exception" = type { %"class.std::exception" }
%"class.std::__exception_ptr::exception_ptr" = type { i8* }
%"class.std::nested_exception" = type { i32 (...)**, %"class.std::__exception_ptr::exception_ptr" }
%"class.std::bad_alloc" = type { %"class.std::exception" }
%"class.std::bad_array_new_length" = type { %"class.std::bad_alloc" }
%"struct.std::_Bit_reference" = type { i64*, i64 }
%"struct.std::_Bit_iterator_base" = type <{ i64*, i32, [4 x i8] }>
%"struct.std::_Bit_iterator" = type { %"struct.std::_Bit_iterator_base.base", [4 x i8] }
%"struct.std::_Bit_iterator_base.base" = type <{ i64*, i32 }>
%"struct.std::_Bit_const_iterator" = type { %"struct.std::_Bit_iterator_base.base", [4 x i8] }
%"struct.std::iterator" = type { i8 }
%"struct.std::hash" = type { i8 }
%"struct.std::hash.0" = type { i8 }
%"struct.std::hash.2" = type { i8 }
%"struct.std::hash.4" = type { i8 }
%"struct.std::hash.6" = type { i8 }
%"struct.std::hash.8" = type { i8 }
%"struct.std::hash.10" = type { i8 }
%"struct.std::hash.12" = type { i8 }
%"struct.std::hash.14" = type { i8 }
%"struct.std::hash.16" = type { i8 }
%"struct.std::hash.18" = type { i8 }
%"struct.std::hash.20" = type { i8 }
%"struct.std::hash.22" = type { i8 }
%"struct.std::hash.24" = type { i8 }
%"struct.std::hash.26" = type { i8 }
%"struct.std::hash.28" = type { i8 }
%"struct.std::hash.30" = type { i8 }
%"struct.fp::Packet" = type <{ %"struct.fp::Buffer::Flowpath", i32, [4 x i8], i64, i8*, i32, [4 x i8] }>
%"struct.fp::Buffer::Flowpath" = type { %"struct.fp::Buffer::Base" }
%"struct.fp::Buffer::Base" = type { i32 (...)**, i8* }
%"struct.fp::Binding" = type { i16, i16 }
%"struct.fp::Binding_list" = type { [4 x %"struct.fp::Binding"], i32 }
%"struct.fp::Environment" = type { [16 x %"struct.fp::Binding_list"] }
%"struct.fp::Context" = type { %"struct.fp::Packet"*, %"struct.fp::Metadata", %"struct.fp::Context_current", i32, i32, i32, i32, %"struct.fp::Action_set", %"struct.fp::Environment", %"struct.fp::Environment" }
%"struct.fp::Metadata" = type { i64 }
%"struct.fp::Context_current" = type { i16, %"struct.fp::Table"*, %"struct.fp::Flow"* }
%"struct.fp::Table" = type opaque
%"struct.fp::Flow" = type opaque
%"struct.fp::Action_set" = type { %"class.std::vector" }
%"class.std::vector" = type { %"struct.std::_Vector_base" }
%"struct.std::_Vector_base" = type { %"struct.std::_Vector_base<fp::Action, std::allocator<fp::Action> >::_Vector_impl" }
%"struct.std::_Vector_base<fp::Action, std::allocator<fp::Action> >::_Vector_impl" = type { %"struct.fp::Action"*, %"struct.fp::Action"*, %"struct.fp::Action"* }
%"struct.fp::Action" = type { %"union.fp::Action::Value", i8 }
%"union.fp::Action::Value" = type { %"struct.fp::Set_action" }
%"struct.fp::Set_action" = type { %"struct.fp::Field", i8* }
%"struct.fp::Field" = type { i8, i16, i16 }
%"class.std::allocator" = type { i8 }
%"class.__gnu_cxx::__normal_iterator" = type { %"struct.fp::Action"* }
%struct.ldiv_t = type { i64, i64 }
%struct.lldiv_t = type { i64, i64 }
%struct.__locale_struct = type { [13 x %struct.__locale_data*], i16*, i32*, i32*, [13 x i8*] }
%struct.__locale_data = type opaque
%struct.__va_list_tag = type { i32, i32, i8*, i8* }
%class.__pthread_cleanup_class = type { void (i8*)*, i8*, i32, i32 }
%union.pthread_attr_t = type { i64, [48 x i8] }
%union.pthread_mutex_t = type { %"struct.(anonymous union)::__pthread_mutex_s" }
%"struct.(anonymous union)::__pthread_mutex_s" = type { i32, i32, i32, i32, i32, i16, i16, %struct.__pthread_internal_list }
%struct.__pthread_internal_list = type { %struct.__pthread_internal_list*, %struct.__pthread_internal_list* }
%union.pthread_mutexattr_t = type { i32 }
%struct.timespec = type { i64, i64 }
%union.pthread_cond_t = type { %struct.anon }
%struct.anon = type { i32, i32, i64, i64, i64, i8*, i32, i32 }
%"class.std::basic_string" = type { %"struct.std::basic_string<char, std::char_traits<char>, std::allocator<char> >::_Alloc_hider" }
%"struct.std::basic_string<char, std::char_traits<char>, std::allocator<char> >::_Alloc_hider" = type { i8* }
%"class.std::allocator.32" = type { i8 }
%"class.std::basic_string.35" = type { %"struct.std::basic_string<wchar_t, std::char_traits<wchar_t>, std::allocator<wchar_t> >::_Alloc_hider" }
%"struct.std::basic_string<wchar_t, std::char_traits<wchar_t>, std::allocator<wchar_t> >::_Alloc_hider" = type { i32* }
%"class.std::allocator.36" = type { i8 }
%"struct.std::hash.39" = type { i8 }
%"struct.std::hash.41" = type { i8 }
%"struct.std::hash.43" = type { i8 }
%"class.std::basic_string.45" = type { %"struct.std::basic_string<char16_t, std::char_traits<char16_t>, std::allocator<char16_t> >::_Alloc_hider" }
%"struct.std::basic_string<char16_t, std::char_traits<char16_t>, std::allocator<char16_t> >::_Alloc_hider" = type { i16* }
%"struct.std::basic_string<char16_t, std::char_traits<char16_t>, std::allocator<char16_t> >::_Rep" = type { %"struct.std::basic_string<char16_t, std::char_traits<char16_t>, std::allocator<char16_t> >::_Rep_base" }
%"struct.std::basic_string<char16_t, std::char_traits<char16_t>, std::allocator<char16_t> >::_Rep_base" = type { i64, i64, i32 }
%"struct.std::hash.49" = type { i8 }
%"class.std::basic_string.51" = type { %"struct.std::basic_string<char32_t, std::char_traits<char32_t>, std::allocator<char32_t> >::_Alloc_hider" }
%"struct.std::basic_string<char32_t, std::char_traits<char32_t>, std::allocator<char32_t> >::_Alloc_hider" = type { i32* }
%"struct.std::basic_string<char32_t, std::char_traits<char32_t>, std::allocator<char32_t> >::_Rep" = type { %"struct.std::basic_string<char32_t, std::char_traits<char32_t>, std::allocator<char32_t> >::_Rep_base" }
%"struct.std::basic_string<char32_t, std::char_traits<char32_t>, std::allocator<char32_t> >::_Rep_base" = type { i64, i64, i32 }
%"class.std::random_device" = type { %union.anon }
%union.anon = type { %"class.std::mersenne_twister_engine" }
%"class.std::mersenne_twister_engine" = type { [624 x i64], i64 }
%"struct.std::bernoulli_distribution::param_type" = type { double }
%"class.std::bernoulli_distribution" = type { %"struct.std::bernoulli_distribution::param_type" }
%"class.std::seed_seq" = type { %"class.std::vector.55" }
%"class.std::vector.55" = type { %"struct.std::_Vector_base.56" }
%"struct.std::_Vector_base.56" = type { %"struct.std::_Vector_base<unsigned int, std::allocator<unsigned int> >::_Vector_impl" }
%"struct.std::_Vector_base<unsigned int, std::allocator<unsigned int> >::_Vector_impl" = type { i32*, i32*, i32* }
%"class.std::locale" = type { %"class.std::locale::_Impl"* }
%"class.std::locale::_Impl" = type { i32, %"class.std::locale::facet"**, i64, %"class.std::locale::facet"**, i8** }
%"class.std::locale::facet" = type <{ i32 (...)**, i32, [4 x i8] }>
%"class.std::locale::id" = type { i64 }
%"class.std::ios_base" = type { i32 (...)**, i64, i64, i32, i32, i32, %"struct.std::ios_base::_Callback_list"*, %"struct.std::ios_base::_Words", [8 x %"struct.std::ios_base::_Words"], i32, %"struct.std::ios_base::_Words"*, %"class.std::locale" }
%"struct.std::ios_base::_Callback_list" = type { %"struct.std::ios_base::_Callback_list"*, void (i32, %"class.std::ios_base"*, i32)*, i32, i32 }
%"struct.std::ios_base::_Words" = type { i8*, i64 }
%"class.std::ctype" = type <{ %"class.std::locale::facet.base", [4 x i8], %struct.__locale_struct*, i8, [7 x i8], i32*, i32*, i16*, i8, [256 x i8], [256 x i8], i8, [6 x i8] }>
%"class.std::locale::facet.base" = type <{ i32 (...)**, i32 }>
%"struct.std::random_access_iterator_tag" = type { i8 }
%"class.std::allocator.57" = type { i8 }
%"class.__gnu_cxx::new_allocator.58" = type { i8 }
%"class.std::allocator.61" = type { i8 }
%"class.__gnu_cxx::new_allocator.62" = type { i8 }
%"class.__gnu_cxx::new_allocator.33" = type { i8 }
%"class.__gnu_cxx::new_allocator.37" = type { i8 }
%"struct.std::forward_iterator_tag" = type { i8 }
%"struct.std::basic_string<wchar_t, std::char_traits<wchar_t>, std::allocator<wchar_t> >::_Rep" = type { %"struct.std::basic_string<wchar_t, std::char_traits<wchar_t>, std::allocator<wchar_t> >::_Rep_base" }
%"struct.std::basic_string<wchar_t, std::char_traits<wchar_t>, std::allocator<wchar_t> >::_Rep_base" = type { i64, i64, i32 }
%"struct.std::__false_type" = type { i8 }
%"struct.std::basic_string<char, std::char_traits<char>, std::allocator<char> >::_Rep" = type { %"struct.std::basic_string<char, std::char_traits<char>, std::allocator<char> >::_Rep_base" }
%"struct.std::basic_string<char, std::char_traits<char>, std::allocator<char> >::_Rep_base" = type { i64, i64, i32 }
%"class.__gnu_cxx::new_allocator" = type { i8 }
%"class.std::move_iterator" = type { %"struct.fp::Action"* }
%"class.std::initializer_list" = type { double*, i64 }
%"class.std::initializer_list.64" = type { i8*, i64 }

@_ZStL19piecewise_construct = internal constant %"struct.std::piecewise_construct_t" undef, align 1
@_ZTVSt9exception = external unnamed_addr constant [5 x i8*]
@_ZTVSt13bad_exception = external unnamed_addr constant [5 x i8*]
@_ZTVSt16nested_exception = external unnamed_addr constant [4 x i8*]
@_ZTVSt9bad_alloc = external unnamed_addr constant [5 x i8*]
@_ZTVSt20bad_array_new_length = external unnamed_addr constant [5 x i8*]
@_ZN9__gnu_cxx24__numeric_traits_integerIlE5__maxE = linkonce_odr constant i64 9223372036854775807, align 8
@_ZN2fpL13Packet_memoryE = internal constant i32 0, align 4
@_ZN2fpL15Metadata_memoryE = internal constant i32 1, align 4
@.str = private unnamed_addr constant [12 x i8] c"!is_empty()\00", align 1
@.str1 = private unnamed_addr constant [14 x i8] c"./binding.hpp\00", align 1
@__PRETTY_FUNCTION__._ZNK2fp12Binding_list3topEv = private unnamed_addr constant [49 x i8] c"const fp::Binding &fp::Binding_list::top() const\00", align 1
@__PRETTY_FUNCTION__._ZN2fp12Binding_list3topEv = private unnamed_addr constant [37 x i8] c"fp::Binding &fp::Binding_list::top()\00", align 1
@__PRETTY_FUNCTION__._ZNK2fp12Binding_list6bottomEv = private unnamed_addr constant [52 x i8] c"const fp::Binding &fp::Binding_list::bottom() const\00", align 1
@__PRETTY_FUNCTION__._ZN2fp12Binding_list6bottomEv = private unnamed_addr constant [40 x i8] c"fp::Binding &fp::Binding_list::bottom()\00", align 1
@.str2 = private unnamed_addr constant [11 x i8] c"!is_full()\00", align 1
@__PRETTY_FUNCTION__._ZN2fp12Binding_list4pushENS_7BindingE = private unnamed_addr constant [41 x i8] c"void fp::Binding_list::push(fp::Binding)\00", align 1
@__PRETTY_FUNCTION__._ZN2fp12Binding_list4pushEt = private unnamed_addr constant [43 x i8] c"void fp::Binding_list::push(std::uint16_t)\00", align 1
@__PRETTY_FUNCTION__._ZN2fp12Binding_list3popEv = private unnamed_addr constant [29 x i8] c"void fp::Binding_list::pop()\00", align 1
@.str3 = private unnamed_addr constant [25 x i8] c"0 <= n && n < max_fields\00", align 1
@__PRETTY_FUNCTION__._ZN2fp11Environment4pushEiNS_7BindingE = private unnamed_addr constant [45 x i8] c"void fp::Environment::push(int, fp::Binding)\00", align 1
@__PRETTY_FUNCTION__._ZN2fp11Environment3popEi = private unnamed_addr constant [31 x i8] c"void fp::Environment::pop(int)\00", align 1
@.str4 = private unnamed_addr constant [7 x i8] c"n != 0\00", align 1
@__PRETTY_FUNCTION__._ZN2fp7BindingC2Ett = private unnamed_addr constant [51 x i8] c"fp::Binding::Binding(std::uint16_t, std::uint16_t)\00", align 1
@_ZZL18__gthread_active_pvE20__gthread_active_ptr = internal constant i8* bitcast (i32 (i32*, void (i8*)*)* @__pthread_key_create to i8*), align 8
@_ZN9__gnu_cxx24__numeric_traits_integerIiE5__maxE = linkonce_odr constant i32 2147483647, align 4
@_ZN9__gnu_cxx24__numeric_traits_integerIiE5__minE = linkonce_odr constant i32 -2147483648, align 4
@_ZN9__gnu_cxx25__numeric_traits_floatingIfE16__max_exponent10E = linkonce_odr constant i32 38, align 4
@_ZN9__gnu_cxx25__numeric_traits_floatingIdE16__max_exponent10E = linkonce_odr constant i32 308, align 4
@_ZN9__gnu_cxx25__numeric_traits_floatingIeE16__max_exponent10E = linkonce_odr constant i32 4932, align 4
@.str5 = private unnamed_addr constant [5 x i8] c"stoi\00", align 1
@.str6 = private unnamed_addr constant [5 x i8] c"stol\00", align 1
@.str7 = private unnamed_addr constant [6 x i8] c"stoul\00", align 1
@.str8 = private unnamed_addr constant [6 x i8] c"stoll\00", align 1
@.str9 = private unnamed_addr constant [7 x i8] c"stoull\00", align 1
@.str10 = private unnamed_addr constant [5 x i8] c"stof\00", align 1
@.str11 = private unnamed_addr constant [5 x i8] c"stod\00", align 1
@.str12 = private unnamed_addr constant [6 x i8] c"stold\00", align 1
@.str13 = private unnamed_addr constant [3 x i8] c"%d\00", align 1
@.str14 = private unnamed_addr constant [3 x i8] c"%u\00", align 1
@.str15 = private unnamed_addr constant [4 x i8] c"%ld\00", align 1
@.str16 = private unnamed_addr constant [4 x i8] c"%lu\00", align 1
@.str17 = private unnamed_addr constant [5 x i8] c"%lld\00", align 1
@.str18 = private unnamed_addr constant [5 x i8] c"%llu\00", align 1
@.str19 = private unnamed_addr constant [3 x i8] c"%f\00", align 1
@.str20 = private unnamed_addr constant [4 x i8] c"%Lf\00", align 1
@.str21 = private unnamed_addr constant [3 x i32] [i32 37, i32 100, i32 0], align 4
@.str22 = private unnamed_addr constant [3 x i32] [i32 37, i32 117, i32 0], align 4
@.str23 = private unnamed_addr constant [4 x i32] [i32 37, i32 108, i32 100, i32 0], align 4
@.str24 = private unnamed_addr constant [4 x i32] [i32 37, i32 108, i32 117, i32 0], align 4
@.str25 = private unnamed_addr constant [5 x i32] [i32 37, i32 108, i32 108, i32 100, i32 0], align 4
@.str26 = private unnamed_addr constant [5 x i32] [i32 37, i32 108, i32 108, i32 117, i32 0], align 4
@.str27 = private unnamed_addr constant [3 x i32] [i32 37, i32 102, i32 0], align 4
@.str28 = private unnamed_addr constant [4 x i32] [i32 37, i32 76, i32 102, i32 0], align 4
@_ZNSt17integral_constantIbLb1EE5valueE = linkonce_odr constant i8 1, align 1
@_ZNSt17integral_constantIbLb0EE5valueE = linkonce_odr constant i8 0, align 1
@_ZTVNSt6locale5facetE = external unnamed_addr constant [4 x i8*]
@_ZN9__gnu_cxx24__numeric_traits_integerImE8__digitsE = linkonce_odr constant i32 64, align 4
@_ZN9__gnu_cxx24__numeric_traits_integerIcE5__maxE = linkonce_odr constant i8 127, align 1
@_ZN9__gnu_cxx24__numeric_traits_integerIsE5__minE = linkonce_odr constant i16 -32768, align 2
@_ZN9__gnu_cxx24__numeric_traits_integerIsE5__maxE = linkonce_odr constant i16 32767, align 2
@_ZN9__gnu_cxx24__numeric_traits_integerIlE5__minE = linkonce_odr constant i64 -9223372036854775808, align 8
@_ZStL8__ioinit = internal global %"class.std::ios_base::Init" zeroinitializer, align 1
@__dso_handle = external global i8
@.str29 = private unnamed_addr constant [42 x i8] c"basic_string::_S_construct null not valid\00", align 1
@.str30 = private unnamed_addr constant [28 x i8] c"vector::_M_emplace_back_aux\00", align 1
@llvm.global_ctors = appending global [1 x { i32, void ()*, i8* }] [{ i32, void ()*, i8* } { i32 65535, void ()* @_GLOBAL__sub_I_libsteve.cpp, i8* null }]

; Function Attrs: inlinehint nounwind uwtable
define linkonce_odr zeroext i1 @_ZN9__gnu_cxx17__is_null_pointerEDn(i8*) #0 {
  %2 = alloca i8*, align 8
  store i8* %0, i8** %2, align 8
  ret i1 true
}

; Function Attrs: inlinehint nounwind uwtable
define linkonce_odr void @_ZN9__gnu_cxx5__ops16__iter_less_iterEv() #0 {
  %1 = alloca %"struct.__gnu_cxx::__ops::_Iter_less_iter", align 1
  ret void
}

; Function Attrs: inlinehint nounwind uwtable
define linkonce_odr void @_ZN9__gnu_cxx5__ops15__iter_less_valEv() #0 {
  %1 = alloca %"struct.__gnu_cxx::__ops::_Iter_less_val", align 1
  ret void
}

; Function Attrs: inlinehint nounwind uwtable
define linkonce_odr void @_ZN9__gnu_cxx5__ops15__iter_comp_valENS0_15_Iter_less_iterE() #0 {
  %1 = alloca %"struct.__gnu_cxx::__ops::_Iter_less_val", align 1
  %2 = alloca %"struct.__gnu_cxx::__ops::_Iter_less_iter", align 1
  ret void
}

; Function Attrs: inlinehint nounwind uwtable
define linkonce_odr void @_ZN9__gnu_cxx5__ops15__val_less_iterEv() #0 {
  %1 = alloca %"struct.__gnu_cxx::__ops::_Val_less_iter", align 1
  ret void
}

; Function Attrs: inlinehint nounwind uwtable
define linkonce_odr void @_ZN9__gnu_cxx5__ops15__val_comp_iterENS0_15_Iter_less_iterE() #0 {
  %1 = alloca %"struct.__gnu_cxx::__ops::_Val_less_iter", align 1
  %2 = alloca %"struct.__gnu_cxx::__ops::_Iter_less_iter", align 1
  ret void
}

; Function Attrs: inlinehint nounwind uwtable
define linkonce_odr void @_ZN9__gnu_cxx5__ops20__iter_equal_to_iterEv() #0 {
  %1 = alloca %"struct.__gnu_cxx::__ops::_Iter_equal_to_iter", align 1
  ret void
}

; Function Attrs: inlinehint nounwind uwtable
define linkonce_odr void @_ZN9__gnu_cxx5__ops19__iter_equal_to_valEv() #0 {
  %1 = alloca %"struct.__gnu_cxx::__ops::_Iter_equal_to_val", align 1
  ret void
}

; Function Attrs: inlinehint nounwind uwtable
define linkonce_odr void @_ZN9__gnu_cxx5__ops15__iter_comp_valENS0_19_Iter_equal_to_iterE() #0 {
  %1 = alloca %"struct.__gnu_cxx::__ops::_Iter_equal_to_val", align 1
  %2 = alloca %"struct.__gnu_cxx::__ops::_Iter_equal_to_iter", align 1
  ret void
}

; Function Attrs: inlinehint nounwind uwtable
define linkonce_odr i32 @_ZSt4__lgi(i32 %__n) #0 {
  %1 = alloca i32, align 4
  store i32 %__n, i32* %1, align 4
  %2 = load i32* %1, align 4
  %3 = call i32 @llvm.ctlz.i32(i32 %2, i1 true)
  %4 = sext i32 %3 to i64
  %5 = sub i64 31, %4
  %6 = trunc i64 %5 to i32
  ret i32 %6
}

; Function Attrs: nounwind readnone
declare i32 @llvm.ctlz.i32(i32, i1) #1

; Function Attrs: inlinehint nounwind uwtable
define linkonce_odr i32 @_ZSt4__lgj(i32 %__n) #0 {
  %1 = alloca i32, align 4
  store i32 %__n, i32* %1, align 4
  %2 = load i32* %1, align 4
  %3 = call i32 @llvm.ctlz.i32(i32 %2, i1 true)
  %4 = sext i32 %3 to i64
  %5 = sub i64 31, %4
  %6 = trunc i64 %5 to i32
  ret i32 %6
}

; Function Attrs: inlinehint nounwind uwtable
define linkonce_odr i64 @_ZSt4__lgl(i64 %__n) #0 {
  %1 = alloca i64, align 8
  store i64 %__n, i64* %1, align 8
  %2 = load i64* %1, align 8
  %3 = call i64 @llvm.ctlz.i64(i64 %2, i1 true)
  %4 = trunc i64 %3 to i32
  %5 = sext i32 %4 to i64
  %6 = sub i64 63, %5
  ret i64 %6
}

; Function Attrs: nounwind readnone
declare i64 @llvm.ctlz.i64(i64, i1) #1

; Function Attrs: inlinehint nounwind uwtable
define linkonce_odr i64 @_ZSt4__lgm(i64 %__n) #0 {
  %1 = alloca i64, align 8
  store i64 %__n, i64* %1, align 8
  %2 = load i64* %1, align 8
  %3 = call i64 @llvm.ctlz.i64(i64 %2, i1 true)
  %4 = trunc i64 %3 to i32
  %5 = sext i32 %4 to i64
  %6 = sub i64 63, %5
  ret i64 %6
}

; Function Attrs: inlinehint nounwind uwtable
define linkonce_odr i64 @_ZSt4__lgx(i64 %__n) #0 {
  %1 = alloca i64, align 8
  store i64 %__n, i64* %1, align 8
  %2 = load i64* %1, align 8
  %3 = call i64 @llvm.ctlz.i64(i64 %2, i1 true)
  %4 = trunc i64 %3 to i32
  %5 = sext i32 %4 to i64
  %6 = sub i64 63, %5
  ret i64 %6
}

; Function Attrs: inlinehint nounwind uwtable
define linkonce_odr i64 @_ZSt4__lgy(i64 %__n) #0 {
  %1 = alloca i64, align 8
  store i64 %__n, i64* %1, align 8
  %2 = load i64* %1, align 8
  %3 = call i64 @llvm.ctlz.i64(i64 %2, i1 true)
  %4 = trunc i64 %3 to i32
  %5 = sext i32 %4 to i64
  %6 = sub i64 63, %5
  ret i64 %6
}

; Function Attrs: nounwind uwtable
define linkonce_odr void @_ZNSt9exceptionC2Ev(%"class.std::exception"* %this) unnamed_addr #2 align 2 {
  %1 = alloca %"class.std::exception"*, align 8
  store %"class.std::exception"* %this, %"class.std::exception"** %1, align 8
  %2 = load %"class.std::exception"** %1
  %3 = bitcast %"class.std::exception"* %2 to i32 (...)***
  store i32 (...)** bitcast (i8** getelementptr inbounds ([5 x i8*]* @_ZTVSt9exception, i64 0, i64 2) to i32 (...)**), i32 (...)*** %3
  ret void
}

; Function Attrs: nounwind uwtable
define linkonce_odr void @_ZNSt13bad_exceptionC2Ev(%"class.std::bad_exception"* %this) unnamed_addr #2 align 2 {
  %1 = alloca %"class.std::bad_exception"*, align 8
  store %"class.std::bad_exception"* %this, %"class.std::bad_exception"** %1, align 8
  %2 = load %"class.std::bad_exception"** %1
  %3 = bitcast %"class.std::bad_exception"* %2 to %"class.std::exception"*
  call void @_ZNSt9exceptionC2Ev(%"class.std::exception"* %3) #8
  %4 = bitcast %"class.std::bad_exception"* %2 to i32 (...)***
  store i32 (...)** bitcast (i8** getelementptr inbounds ([5 x i8*]* @_ZTVSt13bad_exception, i64 0, i64 2) to i32 (...)**), i32 (...)*** %4
  ret void
}

; Function Attrs: inlinehint nounwind uwtable
define linkonce_odr void @_ZNSt15__exception_ptr4swapERNS_13exception_ptrES1_(%"class.std::__exception_ptr::exception_ptr"* dereferenceable(8) %__lhs, %"class.std::__exception_ptr::exception_ptr"* dereferenceable(8) %__rhs) #0 {
  %1 = alloca %"class.std::__exception_ptr::exception_ptr"*, align 8
  %2 = alloca %"class.std::__exception_ptr::exception_ptr"*, align 8
  store %"class.std::__exception_ptr::exception_ptr"* %__lhs, %"class.std::__exception_ptr::exception_ptr"** %1, align 8
  store %"class.std::__exception_ptr::exception_ptr"* %__rhs, %"class.std::__exception_ptr::exception_ptr"** %2, align 8
  %3 = load %"class.std::__exception_ptr::exception_ptr"** %1, align 8
  %4 = load %"class.std::__exception_ptr::exception_ptr"** %2, align 8
  call void @_ZNSt15__exception_ptr13exception_ptr4swapERS0_(%"class.std::__exception_ptr::exception_ptr"* %3, %"class.std::__exception_ptr::exception_ptr"* dereferenceable(8) %4) #8
  ret void
}

; Function Attrs: nounwind
declare void @_ZNSt15__exception_ptr13exception_ptr4swapERS0_(%"class.std::__exception_ptr::exception_ptr"*, %"class.std::__exception_ptr::exception_ptr"* dereferenceable(8)) #3

; Function Attrs: nounwind uwtable
define linkonce_odr void @_ZNSt15__exception_ptr13exception_ptrC2EDn(%"class.std::__exception_ptr::exception_ptr"* %this, i8*) unnamed_addr #2 align 2 {
  %2 = alloca %"class.std::__exception_ptr::exception_ptr"*, align 8
  %3 = alloca i8*, align 8
  store %"class.std::__exception_ptr::exception_ptr"* %this, %"class.std::__exception_ptr::exception_ptr"** %2, align 8
  store i8* %0, i8** %3, align 8
  %4 = load %"class.std::__exception_ptr::exception_ptr"** %2
  %5 = getelementptr inbounds %"class.std::__exception_ptr::exception_ptr"* %4, i32 0, i32 0
  store i8* null, i8** %5, align 8
  ret void
}

; Function Attrs: nounwind uwtable
define linkonce_odr dereferenceable(8) %"class.std::__exception_ptr::exception_ptr"* @_ZNSt15__exception_ptr13exception_ptraSEOS0_(%"class.std::__exception_ptr::exception_ptr"* %this, %"class.std::__exception_ptr::exception_ptr"* dereferenceable(8) %__o) #2 align 2 {
  %1 = alloca %"class.std::__exception_ptr::exception_ptr"*, align 8
  %2 = alloca %"class.std::__exception_ptr::exception_ptr"*, align 8
  %3 = alloca %"class.std::__exception_ptr::exception_ptr", align 8
  store %"class.std::__exception_ptr::exception_ptr"* %this, %"class.std::__exception_ptr::exception_ptr"** %1, align 8
  store %"class.std::__exception_ptr::exception_ptr"* %__o, %"class.std::__exception_ptr::exception_ptr"** %2, align 8
  %4 = load %"class.std::__exception_ptr::exception_ptr"** %1
  %5 = load %"class.std::__exception_ptr::exception_ptr"** %2, align 8
  call void @_ZNSt15__exception_ptr13exception_ptrC2EOS0_(%"class.std::__exception_ptr::exception_ptr"* %3, %"class.std::__exception_ptr::exception_ptr"* dereferenceable(8) %5) #8
  call void @_ZNSt15__exception_ptr13exception_ptr4swapERS0_(%"class.std::__exception_ptr::exception_ptr"* %3, %"class.std::__exception_ptr::exception_ptr"* dereferenceable(8) %4) #8
  call void @_ZNSt15__exception_ptr13exception_ptrD1Ev(%"class.std::__exception_ptr::exception_ptr"* %3) #8
  ret %"class.std::__exception_ptr::exception_ptr"* %4
}

; Function Attrs: nounwind uwtable
define linkonce_odr void @_ZNSt15__exception_ptr13exception_ptrC2EOS0_(%"class.std::__exception_ptr::exception_ptr"* %this, %"class.std::__exception_ptr::exception_ptr"* dereferenceable(8) %__o) unnamed_addr #2 align 2 {
  %1 = alloca %"class.std::__exception_ptr::exception_ptr"*, align 8
  %2 = alloca %"class.std::__exception_ptr::exception_ptr"*, align 8
  store %"class.std::__exception_ptr::exception_ptr"* %this, %"class.std::__exception_ptr::exception_ptr"** %1, align 8
  store %"class.std::__exception_ptr::exception_ptr"* %__o, %"class.std::__exception_ptr::exception_ptr"** %2, align 8
  %3 = load %"class.std::__exception_ptr::exception_ptr"** %1
  %4 = getelementptr inbounds %"class.std::__exception_ptr::exception_ptr"* %3, i32 0, i32 0
  %5 = load %"class.std::__exception_ptr::exception_ptr"** %2, align 8
  %6 = getelementptr inbounds %"class.std::__exception_ptr::exception_ptr"* %5, i32 0, i32 0
  %7 = load i8** %6, align 8
  store i8* %7, i8** %4, align 8
  %8 = load %"class.std::__exception_ptr::exception_ptr"** %2, align 8
  %9 = getelementptr inbounds %"class.std::__exception_ptr::exception_ptr"* %8, i32 0, i32 0
  store i8* null, i8** %9, align 8
  ret void
}

; Function Attrs: nounwind
declare void @_ZNSt15__exception_ptr13exception_ptrD1Ev(%"class.std::__exception_ptr::exception_ptr"*) #3

; Function Attrs: nounwind uwtable
define linkonce_odr zeroext i1 @_ZNKSt15__exception_ptr13exception_ptrcvbEv(%"class.std::__exception_ptr::exception_ptr"* %this) #2 align 2 {
  %1 = alloca %"class.std::__exception_ptr::exception_ptr"*, align 8
  store %"class.std::__exception_ptr::exception_ptr"* %this, %"class.std::__exception_ptr::exception_ptr"** %1, align 8
  %2 = load %"class.std::__exception_ptr::exception_ptr"** %1
  %3 = getelementptr inbounds %"class.std::__exception_ptr::exception_ptr"* %2, i32 0, i32 0
  %4 = load i8** %3, align 8
  %5 = icmp ne i8* %4, null
  ret i1 %5
}

; Function Attrs: inlinehint uwtable
define linkonce_odr void @_ZSt17rethrow_if_nestedRKSt16nested_exception(%"class.std::nested_exception"* dereferenceable(16) %__ex) #4 {
  %1 = alloca %"class.std::nested_exception"*, align 8
  store %"class.std::nested_exception"* %__ex, %"class.std::nested_exception"** %1, align 8
  %2 = load %"class.std::nested_exception"** %1, align 8
  call void @_ZNKSt16nested_exception14rethrow_nestedEv(%"class.std::nested_exception"* %2) #17
  unreachable
                                                  ; No predecessors!
  ret void
}

; Function Attrs: noreturn uwtable
define linkonce_odr void @_ZNKSt16nested_exception14rethrow_nestedEv(%"class.std::nested_exception"* %this) #5 align 2 {
  %1 = alloca %"class.std::nested_exception"*, align 8
  %2 = alloca %"class.std::__exception_ptr::exception_ptr", align 8
  %3 = alloca i8*
  %4 = alloca i32
  store %"class.std::nested_exception"* %this, %"class.std::nested_exception"** %1, align 8
  %5 = load %"class.std::nested_exception"** %1
  %6 = getelementptr inbounds %"class.std::nested_exception"* %5, i32 0, i32 1
  call void @_ZNSt15__exception_ptr13exception_ptrC1ERKS0_(%"class.std::__exception_ptr::exception_ptr"* %2, %"class.std::__exception_ptr::exception_ptr"* dereferenceable(8) %6) #8
  invoke void @_ZSt17rethrow_exceptionNSt15__exception_ptr13exception_ptrE(%"class.std::__exception_ptr::exception_ptr"* %2) #17
          to label %7 unwind label %8

; <label>:7                                       ; preds = %0
  unreachable

; <label>:8                                       ; preds = %0
  %9 = landingpad { i8*, i32 } personality i8* bitcast (i32 (...)* @__gxx_personality_v0 to i8*)
          cleanup
  %10 = extractvalue { i8*, i32 } %9, 0
  store i8* %10, i8** %3
  %11 = extractvalue { i8*, i32 } %9, 1
  store i32 %11, i32* %4
  call void @_ZNSt15__exception_ptr13exception_ptrD1Ev(%"class.std::__exception_ptr::exception_ptr"* %2) #8
  br label %13
                                                  ; No predecessors!
  ret void

; <label>:13                                      ; preds = %8
  %14 = load i8** %3
  %15 = load i32* %4
  %16 = insertvalue { i8*, i32 } undef, i8* %14, 0
  %17 = insertvalue { i8*, i32 } %16, i32 %15, 1
  resume { i8*, i32 } %17
}

; Function Attrs: nounwind uwtable
define linkonce_odr void @_ZNSt16nested_exceptionC2Ev(%"class.std::nested_exception"* %this) unnamed_addr #2 align 2 {
  %1 = alloca %"class.std::nested_exception"*, align 8
  store %"class.std::nested_exception"* %this, %"class.std::nested_exception"** %1, align 8
  %2 = load %"class.std::nested_exception"** %1
  %3 = bitcast %"class.std::nested_exception"* %2 to i32 (...)***
  store i32 (...)** bitcast (i8** getelementptr inbounds ([4 x i8*]* @_ZTVSt16nested_exception, i64 0, i64 2) to i32 (...)**), i32 (...)*** %3
  %4 = getelementptr inbounds %"class.std::nested_exception"* %2, i32 0, i32 1
  call void @_ZSt17current_exceptionv(%"class.std::__exception_ptr::exception_ptr"* sret %4) #8
  ret void
}

; Function Attrs: nounwind
declare void @_ZSt17current_exceptionv(%"class.std::__exception_ptr::exception_ptr"* sret) #3

; Function Attrs: noreturn
declare void @_ZSt17rethrow_exceptionNSt15__exception_ptr13exception_ptrE(%"class.std::__exception_ptr::exception_ptr"*) #6

; Function Attrs: nounwind
declare void @_ZNSt15__exception_ptr13exception_ptrC1ERKS0_(%"class.std::__exception_ptr::exception_ptr"*, %"class.std::__exception_ptr::exception_ptr"* dereferenceable(8)) #3

declare i32 @__gxx_personality_v0(...)

; Function Attrs: nounwind uwtable
define linkonce_odr void @_ZNKSt16nested_exception10nested_ptrEv(%"class.std::__exception_ptr::exception_ptr"* noalias sret %agg.result, %"class.std::nested_exception"* %this) #2 align 2 {
  %1 = alloca %"class.std::nested_exception"*, align 8
  store %"class.std::nested_exception"* %this, %"class.std::nested_exception"** %1, align 8
  %2 = load %"class.std::nested_exception"** %1
  %3 = getelementptr inbounds %"class.std::nested_exception"* %2, i32 0, i32 1
  call void @_ZNSt15__exception_ptr13exception_ptrC1ERKS0_(%"class.std::__exception_ptr::exception_ptr"* %agg.result, %"class.std::__exception_ptr::exception_ptr"* dereferenceable(8) %3) #8
  ret void
}

; Function Attrs: inlinehint nounwind uwtable
define linkonce_odr i8* @_ZnwmPv(i64, i8* %__p) #0 {
  %2 = alloca i64, align 8
  %3 = alloca i8*, align 8
  store i64 %0, i64* %2, align 8
  store i8* %__p, i8** %3, align 8
  %4 = load i8** %3, align 8
  ret i8* %4
}

; Function Attrs: inlinehint nounwind uwtable
define linkonce_odr i8* @_ZnamPv(i64, i8* %__p) #0 {
  %2 = alloca i64, align 8
  %3 = alloca i8*, align 8
  store i64 %0, i64* %2, align 8
  store i8* %__p, i8** %3, align 8
  %4 = load i8** %3, align 8
  ret i8* %4
}

; Function Attrs: inlinehint nounwind uwtable
define linkonce_odr void @_ZdlPvS_(i8*, i8*) #0 {
  %3 = alloca i8*, align 8
  %4 = alloca i8*, align 8
  store i8* %0, i8** %3, align 8
  store i8* %1, i8** %4, align 8
  ret void
}

; Function Attrs: inlinehint nounwind uwtable
define linkonce_odr void @_ZdaPvS_(i8*, i8*) #0 {
  %3 = alloca i8*, align 8
  %4 = alloca i8*, align 8
  store i8* %0, i8** %3, align 8
  store i8* %1, i8** %4, align 8
  ret void
}

; Function Attrs: nounwind uwtable
define linkonce_odr void @_ZNSt9bad_allocC2Ev(%"class.std::bad_alloc"* %this) unnamed_addr #2 align 2 {
  %1 = alloca %"class.std::bad_alloc"*, align 8
  store %"class.std::bad_alloc"* %this, %"class.std::bad_alloc"** %1, align 8
  %2 = load %"class.std::bad_alloc"** %1
  %3 = bitcast %"class.std::bad_alloc"* %2 to %"class.std::exception"*
  call void @_ZNSt9exceptionC2Ev(%"class.std::exception"* %3) #8
  %4 = bitcast %"class.std::bad_alloc"* %2 to i32 (...)***
  store i32 (...)** bitcast (i8** getelementptr inbounds ([5 x i8*]* @_ZTVSt9bad_alloc, i64 0, i64 2) to i32 (...)**), i32 (...)*** %4
  ret void
}

; Function Attrs: nounwind uwtable
define linkonce_odr void @_ZNSt20bad_array_new_lengthC2Ev(%"class.std::bad_array_new_length"* %this) unnamed_addr #2 align 2 {
  %1 = alloca %"class.std::bad_array_new_length"*, align 8
  store %"class.std::bad_array_new_length"* %this, %"class.std::bad_array_new_length"** %1, align 8
  %2 = load %"class.std::bad_array_new_length"** %1
  %3 = bitcast %"class.std::bad_array_new_length"* %2 to %"class.std::bad_alloc"*
  call void @_ZNSt9bad_allocC2Ev(%"class.std::bad_alloc"* %3) #8
  %4 = bitcast %"class.std::bad_array_new_length"* %2 to i32 (...)***
  store i32 (...)** bitcast (i8** getelementptr inbounds ([5 x i8*]* @_ZTVSt20bad_array_new_length, i64 0, i64 2) to i32 (...)**), i32 (...)*** %4
  ret void
}

; Function Attrs: inlinehint nounwind uwtable
define linkonce_odr void @_ZSt4swapSt14_Bit_referenceS_(i64* %__x.coerce0, i64 %__x.coerce1, i64* %__y.coerce0, i64 %__y.coerce1) #0 {
  %__x = alloca %"struct.std::_Bit_reference", align 8
  %__y = alloca %"struct.std::_Bit_reference", align 8
  %__tmp = alloca i8, align 1
  %1 = bitcast %"struct.std::_Bit_reference"* %__x to { i64*, i64 }*
  %2 = getelementptr { i64*, i64 }* %1, i32 0, i32 0
  store i64* %__x.coerce0, i64** %2
  %3 = getelementptr { i64*, i64 }* %1, i32 0, i32 1
  store i64 %__x.coerce1, i64* %3
  %4 = bitcast %"struct.std::_Bit_reference"* %__y to { i64*, i64 }*
  %5 = getelementptr { i64*, i64 }* %4, i32 0, i32 0
  store i64* %__y.coerce0, i64** %5
  %6 = getelementptr { i64*, i64 }* %4, i32 0, i32 1
  store i64 %__y.coerce1, i64* %6
  %7 = call zeroext i1 @_ZNKSt14_Bit_referencecvbEv(%"struct.std::_Bit_reference"* %__x) #8
  %8 = zext i1 %7 to i8
  store i8 %8, i8* %__tmp, align 1
  %9 = call dereferenceable(16) %"struct.std::_Bit_reference"* @_ZNSt14_Bit_referenceaSERKS_(%"struct.std::_Bit_reference"* %__x, %"struct.std::_Bit_reference"* dereferenceable(16) %__y) #8
  %10 = load i8* %__tmp, align 1
  %11 = trunc i8 %10 to i1
  %12 = call dereferenceable(16) %"struct.std::_Bit_reference"* @_ZNSt14_Bit_referenceaSEb(%"struct.std::_Bit_reference"* %__y, i1 zeroext %11) #8
  ret void
}

; Function Attrs: nounwind uwtable
define linkonce_odr zeroext i1 @_ZNKSt14_Bit_referencecvbEv(%"struct.std::_Bit_reference"* %this) #2 align 2 {
  %1 = alloca %"struct.std::_Bit_reference"*, align 8
  store %"struct.std::_Bit_reference"* %this, %"struct.std::_Bit_reference"** %1, align 8
  %2 = load %"struct.std::_Bit_reference"** %1
  %3 = getelementptr inbounds %"struct.std::_Bit_reference"* %2, i32 0, i32 0
  %4 = load i64** %3, align 8
  %5 = load i64* %4, align 8
  %6 = getelementptr inbounds %"struct.std::_Bit_reference"* %2, i32 0, i32 1
  %7 = load i64* %6, align 8
  %8 = and i64 %5, %7
  %9 = icmp ne i64 %8, 0
  %10 = xor i1 %9, true
  %11 = xor i1 %10, true
  ret i1 %11
}

; Function Attrs: nounwind uwtable
define linkonce_odr dereferenceable(16) %"struct.std::_Bit_reference"* @_ZNSt14_Bit_referenceaSERKS_(%"struct.std::_Bit_reference"* %this, %"struct.std::_Bit_reference"* dereferenceable(16) %__x) #2 align 2 {
  %1 = alloca %"struct.std::_Bit_reference"*, align 8
  %2 = alloca %"struct.std::_Bit_reference"*, align 8
  store %"struct.std::_Bit_reference"* %this, %"struct.std::_Bit_reference"** %1, align 8
  store %"struct.std::_Bit_reference"* %__x, %"struct.std::_Bit_reference"** %2, align 8
  %3 = load %"struct.std::_Bit_reference"** %1
  %4 = load %"struct.std::_Bit_reference"** %2, align 8
  %5 = call zeroext i1 @_ZNKSt14_Bit_referencecvbEv(%"struct.std::_Bit_reference"* %4) #8
  %6 = call dereferenceable(16) %"struct.std::_Bit_reference"* @_ZNSt14_Bit_referenceaSEb(%"struct.std::_Bit_reference"* %3, i1 zeroext %5) #8
  ret %"struct.std::_Bit_reference"* %6
}

; Function Attrs: nounwind uwtable
define linkonce_odr dereferenceable(16) %"struct.std::_Bit_reference"* @_ZNSt14_Bit_referenceaSEb(%"struct.std::_Bit_reference"* %this, i1 zeroext %__x) #2 align 2 {
  %1 = alloca %"struct.std::_Bit_reference"*, align 8
  %2 = alloca i8, align 1
  store %"struct.std::_Bit_reference"* %this, %"struct.std::_Bit_reference"** %1, align 8
  %3 = zext i1 %__x to i8
  store i8 %3, i8* %2, align 1
  %4 = load %"struct.std::_Bit_reference"** %1
  %5 = load i8* %2, align 1
  %6 = trunc i8 %5 to i1
  br i1 %6, label %7, label %14

; <label>:7                                       ; preds = %0
  %8 = getelementptr inbounds %"struct.std::_Bit_reference"* %4, i32 0, i32 1
  %9 = load i64* %8, align 8
  %10 = getelementptr inbounds %"struct.std::_Bit_reference"* %4, i32 0, i32 0
  %11 = load i64** %10, align 8
  %12 = load i64* %11, align 8
  %13 = or i64 %12, %9
  store i64 %13, i64* %11, align 8
  br label %22

; <label>:14                                      ; preds = %0
  %15 = getelementptr inbounds %"struct.std::_Bit_reference"* %4, i32 0, i32 1
  %16 = load i64* %15, align 8
  %17 = xor i64 %16, -1
  %18 = getelementptr inbounds %"struct.std::_Bit_reference"* %4, i32 0, i32 0
  %19 = load i64** %18, align 8
  %20 = load i64* %19, align 8
  %21 = and i64 %20, %17
  store i64 %21, i64* %19, align 8
  br label %22

; <label>:22                                      ; preds = %14, %7
  ret %"struct.std::_Bit_reference"* %4
}

; Function Attrs: inlinehint nounwind uwtable
define linkonce_odr void @_ZSt4swapSt14_Bit_referenceRb(i64* %__x.coerce0, i64 %__x.coerce1, i8* dereferenceable(1) %__y) #0 {
  %__x = alloca %"struct.std::_Bit_reference", align 8
  %1 = alloca i8*, align 8
  %__tmp = alloca i8, align 1
  %2 = bitcast %"struct.std::_Bit_reference"* %__x to { i64*, i64 }*
  %3 = getelementptr { i64*, i64 }* %2, i32 0, i32 0
  store i64* %__x.coerce0, i64** %3
  %4 = getelementptr { i64*, i64 }* %2, i32 0, i32 1
  store i64 %__x.coerce1, i64* %4
  store i8* %__y, i8** %1, align 8
  %5 = call zeroext i1 @_ZNKSt14_Bit_referencecvbEv(%"struct.std::_Bit_reference"* %__x) #8
  %6 = zext i1 %5 to i8
  store i8 %6, i8* %__tmp, align 1
  %7 = load i8** %1, align 8
  %8 = load i8* %7, align 1
  %9 = trunc i8 %8 to i1
  %10 = call dereferenceable(16) %"struct.std::_Bit_reference"* @_ZNSt14_Bit_referenceaSEb(%"struct.std::_Bit_reference"* %__x, i1 zeroext %9) #8
  %11 = load i8* %__tmp, align 1
  %12 = trunc i8 %11 to i1
  %13 = load i8** %1, align 8
  %14 = zext i1 %12 to i8
  store i8 %14, i8* %13, align 1
  ret void
}

; Function Attrs: inlinehint nounwind uwtable
define linkonce_odr void @_ZSt4swapRbSt14_Bit_reference(i8* dereferenceable(1) %__x, i64* %__y.coerce0, i64 %__y.coerce1) #0 {
  %__y = alloca %"struct.std::_Bit_reference", align 8
  %1 = alloca i8*, align 8
  %__tmp = alloca i8, align 1
  %2 = bitcast %"struct.std::_Bit_reference"* %__y to { i64*, i64 }*
  %3 = getelementptr { i64*, i64 }* %2, i32 0, i32 0
  store i64* %__y.coerce0, i64** %3
  %4 = getelementptr { i64*, i64 }* %2, i32 0, i32 1
  store i64 %__y.coerce1, i64* %4
  store i8* %__x, i8** %1, align 8
  %5 = load i8** %1, align 8
  %6 = load i8* %5, align 1
  %7 = trunc i8 %6 to i1
  %8 = zext i1 %7 to i8
  store i8 %8, i8* %__tmp, align 1
  %9 = call zeroext i1 @_ZNKSt14_Bit_referencecvbEv(%"struct.std::_Bit_reference"* %__y) #8
  %10 = load i8** %1, align 8
  %11 = zext i1 %9 to i8
  store i8 %11, i8* %10, align 1
  %12 = load i8* %__tmp, align 1
  %13 = trunc i8 %12 to i1
  %14 = call dereferenceable(16) %"struct.std::_Bit_reference"* @_ZNSt14_Bit_referenceaSEb(%"struct.std::_Bit_reference"* %__y, i1 zeroext %13) #8
  ret void
}

; Function Attrs: inlinehint nounwind uwtable
define linkonce_odr i64 @_ZStmiRKSt18_Bit_iterator_baseS1_(%"struct.std::_Bit_iterator_base"* dereferenceable(16) %__x, %"struct.std::_Bit_iterator_base"* dereferenceable(16) %__y) #0 {
  %1 = alloca %"struct.std::_Bit_iterator_base"*, align 8
  %2 = alloca %"struct.std::_Bit_iterator_base"*, align 8
  store %"struct.std::_Bit_iterator_base"* %__x, %"struct.std::_Bit_iterator_base"** %1, align 8
  store %"struct.std::_Bit_iterator_base"* %__y, %"struct.std::_Bit_iterator_base"** %2, align 8
  %3 = load %"struct.std::_Bit_iterator_base"** %1, align 8
  %4 = getelementptr inbounds %"struct.std::_Bit_iterator_base"* %3, i32 0, i32 0
  %5 = load i64** %4, align 8
  %6 = load %"struct.std::_Bit_iterator_base"** %2, align 8
  %7 = getelementptr inbounds %"struct.std::_Bit_iterator_base"* %6, i32 0, i32 0
  %8 = load i64** %7, align 8
  %9 = ptrtoint i64* %5 to i64
  %10 = ptrtoint i64* %8 to i64
  %11 = sub i64 %9, %10
  %12 = sdiv exact i64 %11, 8
  %13 = mul nsw i64 64, %12
  %14 = load %"struct.std::_Bit_iterator_base"** %1, align 8
  %15 = getelementptr inbounds %"struct.std::_Bit_iterator_base"* %14, i32 0, i32 1
  %16 = load i32* %15, align 4
  %17 = zext i32 %16 to i64
  %18 = add nsw i64 %13, %17
  %19 = load %"struct.std::_Bit_iterator_base"** %2, align 8
  %20 = getelementptr inbounds %"struct.std::_Bit_iterator_base"* %19, i32 0, i32 1
  %21 = load i32* %20, align 4
  %22 = zext i32 %21 to i64
  %23 = sub nsw i64 %18, %22
  ret i64 %23
}

; Function Attrs: inlinehint uwtable
define linkonce_odr { i64*, i32 } @_ZStpllRKSt13_Bit_iterator(i64 %__n, %"struct.std::_Bit_iterator"* dereferenceable(16) %__x) #4 {
  %1 = alloca %"struct.std::_Bit_iterator", align 8
  %2 = alloca i64, align 8
  %3 = alloca %"struct.std::_Bit_iterator"*, align 8
  store i64 %__n, i64* %2, align 8
  store %"struct.std::_Bit_iterator"* %__x, %"struct.std::_Bit_iterator"** %3, align 8
  %4 = load %"struct.std::_Bit_iterator"** %3, align 8
  %5 = load i64* %2, align 8
  %6 = call { i64*, i32 } @_ZNKSt13_Bit_iteratorplEl(%"struct.std::_Bit_iterator"* %4, i64 %5)
  %7 = bitcast %"struct.std::_Bit_iterator"* %1 to { i64*, i32 }*
  %8 = getelementptr { i64*, i32 }* %7, i32 0, i32 0
  %9 = extractvalue { i64*, i32 } %6, 0
  store i64* %9, i64** %8, align 1
  %10 = getelementptr { i64*, i32 }* %7, i32 0, i32 1
  %11 = extractvalue { i64*, i32 } %6, 1
  store i32 %11, i32* %10, align 1
  %12 = bitcast %"struct.std::_Bit_iterator"* %1 to { i64*, i32 }*
  %13 = load { i64*, i32 }* %12, align 1
  ret { i64*, i32 } %13
}

; Function Attrs: nounwind uwtable
define linkonce_odr { i64*, i32 } @_ZNKSt13_Bit_iteratorplEl(%"struct.std::_Bit_iterator"* %this, i64 %__i) #2 align 2 {
  %1 = alloca %"struct.std::_Bit_iterator", align 8
  %2 = alloca %"struct.std::_Bit_iterator"*, align 8
  %3 = alloca i64, align 8
  %__tmp = alloca %"struct.std::_Bit_iterator", align 8
  store %"struct.std::_Bit_iterator"* %this, %"struct.std::_Bit_iterator"** %2, align 8
  store i64 %__i, i64* %3, align 8
  %4 = load %"struct.std::_Bit_iterator"** %2
  %5 = bitcast %"struct.std::_Bit_iterator"* %__tmp to i8*
  %6 = bitcast %"struct.std::_Bit_iterator"* %4 to i8*
  call void @llvm.memcpy.p0i8.p0i8.i64(i8* %5, i8* %6, i64 16, i32 8, i1 false)
  %7 = load i64* %3, align 8
  %8 = call dereferenceable(16) %"struct.std::_Bit_iterator"* @_ZNSt13_Bit_iteratorpLEl(%"struct.std::_Bit_iterator"* %__tmp, i64 %7)
  %9 = bitcast %"struct.std::_Bit_iterator"* %1 to i8*
  %10 = bitcast %"struct.std::_Bit_iterator"* %8 to i8*
  call void @llvm.memcpy.p0i8.p0i8.i64(i8* %9, i8* %10, i64 16, i32 8, i1 false)
  %11 = bitcast %"struct.std::_Bit_iterator"* %1 to { i64*, i32 }*
  %12 = load { i64*, i32 }* %11, align 1
  ret { i64*, i32 } %12
}

; Function Attrs: inlinehint uwtable
define linkonce_odr { i64*, i32 } @_ZStpllRKSt19_Bit_const_iterator(i64 %__n, %"struct.std::_Bit_const_iterator"* dereferenceable(16) %__x) #4 {
  %1 = alloca %"struct.std::_Bit_const_iterator", align 8
  %2 = alloca i64, align 8
  %3 = alloca %"struct.std::_Bit_const_iterator"*, align 8
  store i64 %__n, i64* %2, align 8
  store %"struct.std::_Bit_const_iterator"* %__x, %"struct.std::_Bit_const_iterator"** %3, align 8
  %4 = load %"struct.std::_Bit_const_iterator"** %3, align 8
  %5 = load i64* %2, align 8
  %6 = call { i64*, i32 } @_ZNKSt19_Bit_const_iteratorplEl(%"struct.std::_Bit_const_iterator"* %4, i64 %5)
  %7 = bitcast %"struct.std::_Bit_const_iterator"* %1 to { i64*, i32 }*
  %8 = getelementptr { i64*, i32 }* %7, i32 0, i32 0
  %9 = extractvalue { i64*, i32 } %6, 0
  store i64* %9, i64** %8, align 1
  %10 = getelementptr { i64*, i32 }* %7, i32 0, i32 1
  %11 = extractvalue { i64*, i32 } %6, 1
  store i32 %11, i32* %10, align 1
  %12 = bitcast %"struct.std::_Bit_const_iterator"* %1 to { i64*, i32 }*
  %13 = load { i64*, i32 }* %12, align 1
  ret { i64*, i32 } %13
}

; Function Attrs: nounwind uwtable
define linkonce_odr { i64*, i32 } @_ZNKSt19_Bit_const_iteratorplEl(%"struct.std::_Bit_const_iterator"* %this, i64 %__i) #2 align 2 {
  %1 = alloca %"struct.std::_Bit_const_iterator", align 8
  %2 = alloca %"struct.std::_Bit_const_iterator"*, align 8
  %3 = alloca i64, align 8
  %__tmp = alloca %"struct.std::_Bit_const_iterator", align 8
  store %"struct.std::_Bit_const_iterator"* %this, %"struct.std::_Bit_const_iterator"** %2, align 8
  store i64 %__i, i64* %3, align 8
  %4 = load %"struct.std::_Bit_const_iterator"** %2
  %5 = bitcast %"struct.std::_Bit_const_iterator"* %__tmp to i8*
  %6 = bitcast %"struct.std::_Bit_const_iterator"* %4 to i8*
  call void @llvm.memcpy.p0i8.p0i8.i64(i8* %5, i8* %6, i64 16, i32 8, i1 false)
  %7 = load i64* %3, align 8
  %8 = call dereferenceable(16) %"struct.std::_Bit_const_iterator"* @_ZNSt19_Bit_const_iteratorpLEl(%"struct.std::_Bit_const_iterator"* %__tmp, i64 %7)
  %9 = bitcast %"struct.std::_Bit_const_iterator"* %1 to i8*
  %10 = bitcast %"struct.std::_Bit_const_iterator"* %8 to i8*
  call void @llvm.memcpy.p0i8.p0i8.i64(i8* %9, i8* %10, i64 16, i32 8, i1 false)
  %11 = bitcast %"struct.std::_Bit_const_iterator"* %1 to { i64*, i32 }*
  %12 = load { i64*, i32 }* %11, align 1
  ret { i64*, i32 } %12
}

; Function Attrs: inlinehint uwtable
define linkonce_odr void @_ZSt14__fill_bvectorSt13_Bit_iteratorS_b(i64* %__first.coerce0, i32 %__first.coerce1, i64* %__last.coerce0, i32 %__last.coerce1, i1 zeroext %__x) #4 {
  %__first = alloca %"struct.std::_Bit_iterator", align 8
  %__last = alloca %"struct.std::_Bit_iterator", align 8
  %1 = alloca i8, align 1
  %2 = alloca %"struct.std::_Bit_reference", align 8
  %3 = bitcast %"struct.std::_Bit_iterator"* %__first to { i64*, i32 }*
  %4 = getelementptr { i64*, i32 }* %3, i32 0, i32 0
  store i64* %__first.coerce0, i64** %4
  %5 = getelementptr { i64*, i32 }* %3, i32 0, i32 1
  store i32 %__first.coerce1, i32* %5
  %6 = bitcast %"struct.std::_Bit_iterator"* %__last to { i64*, i32 }*
  %7 = getelementptr { i64*, i32 }* %6, i32 0, i32 0
  store i64* %__last.coerce0, i64** %7
  %8 = getelementptr { i64*, i32 }* %6, i32 0, i32 1
  store i32 %__last.coerce1, i32* %8
  %9 = zext i1 %__x to i8
  store i8 %9, i8* %1, align 1
  br label %10

; <label>:10                                      ; preds = %24, %0
  %11 = bitcast %"struct.std::_Bit_iterator"* %__first to %"struct.std::_Bit_iterator_base"*
  %12 = bitcast %"struct.std::_Bit_iterator"* %__last to %"struct.std::_Bit_iterator_base"*
  %13 = call zeroext i1 @_ZNKSt18_Bit_iterator_baseneERKS_(%"struct.std::_Bit_iterator_base"* %11, %"struct.std::_Bit_iterator_base"* dereferenceable(16) %12)
  br i1 %13, label %14, label %26

; <label>:14                                      ; preds = %10
  %15 = call { i64*, i64 } @_ZNKSt13_Bit_iteratordeEv(%"struct.std::_Bit_iterator"* %__first)
  %16 = bitcast %"struct.std::_Bit_reference"* %2 to { i64*, i64 }*
  %17 = getelementptr { i64*, i64 }* %16, i32 0, i32 0
  %18 = extractvalue { i64*, i64 } %15, 0
  store i64* %18, i64** %17, align 1
  %19 = getelementptr { i64*, i64 }* %16, i32 0, i32 1
  %20 = extractvalue { i64*, i64 } %15, 1
  store i64 %20, i64* %19, align 1
  %21 = load i8* %1, align 1
  %22 = trunc i8 %21 to i1
  %23 = call dereferenceable(16) %"struct.std::_Bit_reference"* @_ZNSt14_Bit_referenceaSEb(%"struct.std::_Bit_reference"* %2, i1 zeroext %22) #8
  br label %24

; <label>:24                                      ; preds = %14
  %25 = call dereferenceable(16) %"struct.std::_Bit_iterator"* @_ZNSt13_Bit_iteratorppEv(%"struct.std::_Bit_iterator"* %__first)
  br label %10

; <label>:26                                      ; preds = %10
  ret void
}

; Function Attrs: nounwind uwtable
define linkonce_odr zeroext i1 @_ZNKSt18_Bit_iterator_baseneERKS_(%"struct.std::_Bit_iterator_base"* %this, %"struct.std::_Bit_iterator_base"* dereferenceable(16) %__i) #2 align 2 {
  %1 = alloca %"struct.std::_Bit_iterator_base"*, align 8
  %2 = alloca %"struct.std::_Bit_iterator_base"*, align 8
  store %"struct.std::_Bit_iterator_base"* %this, %"struct.std::_Bit_iterator_base"** %1, align 8
  store %"struct.std::_Bit_iterator_base"* %__i, %"struct.std::_Bit_iterator_base"** %2, align 8
  %3 = load %"struct.std::_Bit_iterator_base"** %1
  %4 = load %"struct.std::_Bit_iterator_base"** %2, align 8
  %5 = call zeroext i1 @_ZNKSt18_Bit_iterator_baseeqERKS_(%"struct.std::_Bit_iterator_base"* %3, %"struct.std::_Bit_iterator_base"* dereferenceable(16) %4)
  %6 = xor i1 %5, true
  ret i1 %6
}

; Function Attrs: uwtable
define linkonce_odr { i64*, i64 } @_ZNKSt13_Bit_iteratordeEv(%"struct.std::_Bit_iterator"* %this) #7 align 2 {
  %1 = alloca %"struct.std::_Bit_reference", align 8
  %2 = alloca %"struct.std::_Bit_iterator"*, align 8
  store %"struct.std::_Bit_iterator"* %this, %"struct.std::_Bit_iterator"** %2, align 8
  %3 = load %"struct.std::_Bit_iterator"** %2
  %4 = bitcast %"struct.std::_Bit_iterator"* %3 to %"struct.std::_Bit_iterator_base"*
  %5 = getelementptr inbounds %"struct.std::_Bit_iterator_base"* %4, i32 0, i32 0
  %6 = load i64** %5, align 8
  %7 = bitcast %"struct.std::_Bit_iterator"* %3 to %"struct.std::_Bit_iterator_base"*
  %8 = getelementptr inbounds %"struct.std::_Bit_iterator_base"* %7, i32 0, i32 1
  %9 = load i32* %8, align 4
  %10 = zext i32 %9 to i64
  %11 = shl i64 1, %10
  call void @_ZNSt14_Bit_referenceC2EPmm(%"struct.std::_Bit_reference"* %1, i64* %6, i64 %11)
  %12 = bitcast %"struct.std::_Bit_reference"* %1 to { i64*, i64 }*
  %13 = load { i64*, i64 }* %12, align 1
  ret { i64*, i64 } %13
}

; Function Attrs: nounwind uwtable
define linkonce_odr dereferenceable(16) %"struct.std::_Bit_iterator"* @_ZNSt13_Bit_iteratorppEv(%"struct.std::_Bit_iterator"* %this) #2 align 2 {
  %1 = alloca %"struct.std::_Bit_iterator"*, align 8
  store %"struct.std::_Bit_iterator"* %this, %"struct.std::_Bit_iterator"** %1, align 8
  %2 = load %"struct.std::_Bit_iterator"** %1
  %3 = bitcast %"struct.std::_Bit_iterator"* %2 to %"struct.std::_Bit_iterator_base"*
  call void @_ZNSt18_Bit_iterator_base10_M_bump_upEv(%"struct.std::_Bit_iterator_base"* %3)
  ret %"struct.std::_Bit_iterator"* %2
}

; Function Attrs: inlinehint uwtable
define linkonce_odr void @_ZSt4fillSt13_Bit_iteratorS_RKb(i64* %__first.coerce0, i32 %__first.coerce1, i64* %__last.coerce0, i32 %__last.coerce1, i8* dereferenceable(1) %__x) #4 {
  %__first = alloca %"struct.std::_Bit_iterator", align 8
  %__last = alloca %"struct.std::_Bit_iterator", align 8
  %1 = alloca i8*, align 8
  %2 = alloca i32, align 4
  %3 = alloca %"struct.std::_Bit_iterator", align 8
  %4 = alloca %"struct.std::_Bit_iterator", align 8
  %5 = alloca %"struct.std::_Bit_iterator", align 8
  %6 = alloca %"struct.std::_Bit_iterator", align 8
  %7 = alloca %"struct.std::_Bit_iterator", align 8
  %8 = alloca %"struct.std::_Bit_iterator", align 8
  %9 = bitcast %"struct.std::_Bit_iterator"* %__first to { i64*, i32 }*
  %10 = getelementptr { i64*, i32 }* %9, i32 0, i32 0
  store i64* %__first.coerce0, i64** %10
  %11 = getelementptr { i64*, i32 }* %9, i32 0, i32 1
  store i32 %__first.coerce1, i32* %11
  %12 = bitcast %"struct.std::_Bit_iterator"* %__last to { i64*, i32 }*
  %13 = getelementptr { i64*, i32 }* %12, i32 0, i32 0
  store i64* %__last.coerce0, i64** %13
  %14 = getelementptr { i64*, i32 }* %12, i32 0, i32 1
  store i32 %__last.coerce1, i32* %14
  store i8* %__x, i8** %1, align 8
  %15 = bitcast %"struct.std::_Bit_iterator"* %__first to %"struct.std::_Bit_iterator_base"*
  %16 = getelementptr inbounds %"struct.std::_Bit_iterator_base"* %15, i32 0, i32 0
  %17 = load i64** %16, align 8
  %18 = bitcast %"struct.std::_Bit_iterator"* %__last to %"struct.std::_Bit_iterator_base"*
  %19 = getelementptr inbounds %"struct.std::_Bit_iterator_base"* %18, i32 0, i32 0
  %20 = load i64** %19, align 8
  %21 = icmp ne i64* %17, %20
  br i1 %21, label %22, label %71

; <label>:22                                      ; preds = %0
  %23 = bitcast %"struct.std::_Bit_iterator"* %__first to %"struct.std::_Bit_iterator_base"*
  %24 = getelementptr inbounds %"struct.std::_Bit_iterator_base"* %23, i32 0, i32 0
  %25 = load i64** %24, align 8
  %26 = getelementptr inbounds i64* %25, i64 1
  %27 = bitcast %"struct.std::_Bit_iterator"* %__last to %"struct.std::_Bit_iterator_base"*
  %28 = getelementptr inbounds %"struct.std::_Bit_iterator_base"* %27, i32 0, i32 0
  %29 = load i64** %28, align 8
  %30 = load i8** %1, align 8
  %31 = load i8* %30, align 1
  %32 = trunc i8 %31 to i1
  %33 = select i1 %32, i32 -1, i32 0
  store i32 %33, i32* %2
  call void @_ZSt4fillIPmiEvT_S1_RKT0_(i64* %26, i64* %29, i32* dereferenceable(4) %2)
  %34 = bitcast %"struct.std::_Bit_iterator"* %3 to i8*
  %35 = bitcast %"struct.std::_Bit_iterator"* %__first to i8*
  call void @llvm.memcpy.p0i8.p0i8.i64(i8* %34, i8* %35, i64 16, i32 8, i1 false)
  %36 = bitcast %"struct.std::_Bit_iterator"* %__first to %"struct.std::_Bit_iterator_base"*
  %37 = getelementptr inbounds %"struct.std::_Bit_iterator_base"* %36, i32 0, i32 0
  %38 = load i64** %37, align 8
  %39 = getelementptr inbounds i64* %38, i64 1
  call void @_ZNSt13_Bit_iteratorC2EPmj(%"struct.std::_Bit_iterator"* %4, i64* %39, i32 0)
  %40 = load i8** %1, align 8
  %41 = load i8* %40, align 1
  %42 = trunc i8 %41 to i1
  %43 = bitcast %"struct.std::_Bit_iterator"* %3 to { i64*, i32 }*
  %44 = getelementptr { i64*, i32 }* %43, i32 0, i32 0
  %45 = load i64** %44, align 1
  %46 = getelementptr { i64*, i32 }* %43, i32 0, i32 1
  %47 = load i32* %46, align 1
  %48 = bitcast %"struct.std::_Bit_iterator"* %4 to { i64*, i32 }*
  %49 = getelementptr { i64*, i32 }* %48, i32 0, i32 0
  %50 = load i64** %49, align 1
  %51 = getelementptr { i64*, i32 }* %48, i32 0, i32 1
  %52 = load i32* %51, align 1
  call void @_ZSt14__fill_bvectorSt13_Bit_iteratorS_b(i64* %45, i32 %47, i64* %50, i32 %52, i1 zeroext %42)
  %53 = bitcast %"struct.std::_Bit_iterator"* %__last to %"struct.std::_Bit_iterator_base"*
  %54 = getelementptr inbounds %"struct.std::_Bit_iterator_base"* %53, i32 0, i32 0
  %55 = load i64** %54, align 8
  call void @_ZNSt13_Bit_iteratorC2EPmj(%"struct.std::_Bit_iterator"* %5, i64* %55, i32 0)
  %56 = bitcast %"struct.std::_Bit_iterator"* %6 to i8*
  %57 = bitcast %"struct.std::_Bit_iterator"* %__last to i8*
  call void @llvm.memcpy.p0i8.p0i8.i64(i8* %56, i8* %57, i64 16, i32 8, i1 false)
  %58 = load i8** %1, align 8
  %59 = load i8* %58, align 1
  %60 = trunc i8 %59 to i1
  %61 = bitcast %"struct.std::_Bit_iterator"* %5 to { i64*, i32 }*
  %62 = getelementptr { i64*, i32 }* %61, i32 0, i32 0
  %63 = load i64** %62, align 1
  %64 = getelementptr { i64*, i32 }* %61, i32 0, i32 1
  %65 = load i32* %64, align 1
  %66 = bitcast %"struct.std::_Bit_iterator"* %6 to { i64*, i32 }*
  %67 = getelementptr { i64*, i32 }* %66, i32 0, i32 0
  %68 = load i64** %67, align 1
  %69 = getelementptr { i64*, i32 }* %66, i32 0, i32 1
  %70 = load i32* %69, align 1
  call void @_ZSt14__fill_bvectorSt13_Bit_iteratorS_b(i64* %63, i32 %65, i64* %68, i32 %70, i1 zeroext %60)
  br label %89

; <label>:71                                      ; preds = %0
  %72 = bitcast %"struct.std::_Bit_iterator"* %7 to i8*
  %73 = bitcast %"struct.std::_Bit_iterator"* %__first to i8*
  call void @llvm.memcpy.p0i8.p0i8.i64(i8* %72, i8* %73, i64 16, i32 8, i1 false)
  %74 = bitcast %"struct.std::_Bit_iterator"* %8 to i8*
  %75 = bitcast %"struct.std::_Bit_iterator"* %__last to i8*
  call void @llvm.memcpy.p0i8.p0i8.i64(i8* %74, i8* %75, i64 16, i32 8, i1 false)
  %76 = load i8** %1, align 8
  %77 = load i8* %76, align 1
  %78 = trunc i8 %77 to i1
  %79 = bitcast %"struct.std::_Bit_iterator"* %7 to { i64*, i32 }*
  %80 = getelementptr { i64*, i32 }* %79, i32 0, i32 0
  %81 = load i64** %80, align 1
  %82 = getelementptr { i64*, i32 }* %79, i32 0, i32 1
  %83 = load i32* %82, align 1
  %84 = bitcast %"struct.std::_Bit_iterator"* %8 to { i64*, i32 }*
  %85 = getelementptr { i64*, i32 }* %84, i32 0, i32 0
  %86 = load i64** %85, align 1
  %87 = getelementptr { i64*, i32 }* %84, i32 0, i32 1
  %88 = load i32* %87, align 1
  call void @_ZSt14__fill_bvectorSt13_Bit_iteratorS_b(i64* %81, i32 %83, i64* %86, i32 %88, i1 zeroext %78)
  br label %89

; <label>:89                                      ; preds = %71, %22
  ret void
}

; Function Attrs: inlinehint nounwind uwtable
define linkonce_odr void @_ZSt4fillIPmiEvT_S1_RKT0_(i64* %__first, i64* %__last, i32* dereferenceable(4) %__value) #0 {
  %1 = alloca i64*, align 8
  %2 = alloca i64*, align 8
  %3 = alloca i32*, align 8
  store i64* %__first, i64** %1, align 8
  store i64* %__last, i64** %2, align 8
  store i32* %__value, i32** %3, align 8
  %4 = load i64** %1, align 8
  %5 = call i64* @_ZSt12__niter_baseIPmENSt11_Niter_baseIT_E13iterator_typeES2_(i64* %4)
  %6 = load i64** %2, align 8
  %7 = call i64* @_ZSt12__niter_baseIPmENSt11_Niter_baseIT_E13iterator_typeES2_(i64* %6)
  %8 = load i32** %3, align 8
  call void @_ZSt8__fill_aIPmiEN9__gnu_cxx11__enable_ifIXsr11__is_scalarIT0_EE7__valueEvE6__typeET_S6_RKS3_(i64* %5, i64* %7, i32* dereferenceable(4) %8)
  ret void
}

; Function Attrs: nounwind
declare void @llvm.memcpy.p0i8.p0i8.i64(i8* nocapture, i8* nocapture readonly, i64, i32, i1) #8

; Function Attrs: nounwind uwtable
define linkonce_odr void @_ZNSt13_Bit_iteratorC2EPmj(%"struct.std::_Bit_iterator"* %this, i64* %__x, i32 %__y) unnamed_addr #2 align 2 {
  %1 = alloca %"struct.std::_Bit_iterator"*, align 8
  %2 = alloca i64*, align 8
  %3 = alloca i32, align 4
  store %"struct.std::_Bit_iterator"* %this, %"struct.std::_Bit_iterator"** %1, align 8
  store i64* %__x, i64** %2, align 8
  store i32 %__y, i32* %3, align 4
  %4 = load %"struct.std::_Bit_iterator"** %1
  %5 = bitcast %"struct.std::_Bit_iterator"* %4 to %"struct.std::_Bit_iterator_base"*
  %6 = load i64** %2, align 8
  %7 = load i32* %3, align 4
  call void @_ZNSt18_Bit_iterator_baseC2EPmj(%"struct.std::_Bit_iterator_base"* %5, i64* %6, i32 %7)
  ret void
}

; Function Attrs: nounwind uwtable
define linkonce_odr void @_ZNSt14_Bit_referenceC2Ev(%"struct.std::_Bit_reference"* %this) unnamed_addr #2 align 2 {
  %1 = alloca %"struct.std::_Bit_reference"*, align 8
  store %"struct.std::_Bit_reference"* %this, %"struct.std::_Bit_reference"** %1, align 8
  %2 = load %"struct.std::_Bit_reference"** %1
  %3 = getelementptr inbounds %"struct.std::_Bit_reference"* %2, i32 0, i32 0
  store i64* null, i64** %3, align 8
  %4 = getelementptr inbounds %"struct.std::_Bit_reference"* %2, i32 0, i32 1
  store i64 0, i64* %4, align 8
  ret void
}

; Function Attrs: nounwind uwtable
define linkonce_odr zeroext i1 @_ZNKSt14_Bit_referenceeqERKS_(%"struct.std::_Bit_reference"* %this, %"struct.std::_Bit_reference"* dereferenceable(16) %__x) #2 align 2 {
  %1 = alloca %"struct.std::_Bit_reference"*, align 8
  %2 = alloca %"struct.std::_Bit_reference"*, align 8
  store %"struct.std::_Bit_reference"* %this, %"struct.std::_Bit_reference"** %1, align 8
  store %"struct.std::_Bit_reference"* %__x, %"struct.std::_Bit_reference"** %2, align 8
  %3 = load %"struct.std::_Bit_reference"** %1
  %4 = call zeroext i1 @_ZNKSt14_Bit_referencecvbEv(%"struct.std::_Bit_reference"* %3) #8
  %5 = zext i1 %4 to i32
  %6 = load %"struct.std::_Bit_reference"** %2, align 8
  %7 = call zeroext i1 @_ZNKSt14_Bit_referencecvbEv(%"struct.std::_Bit_reference"* %6) #8
  %8 = zext i1 %7 to i32
  %9 = icmp eq i32 %5, %8
  ret i1 %9
}

; Function Attrs: nounwind uwtable
define linkonce_odr zeroext i1 @_ZNKSt14_Bit_referenceltERKS_(%"struct.std::_Bit_reference"* %this, %"struct.std::_Bit_reference"* dereferenceable(16) %__x) #2 align 2 {
  %1 = alloca %"struct.std::_Bit_reference"*, align 8
  %2 = alloca %"struct.std::_Bit_reference"*, align 8
  store %"struct.std::_Bit_reference"* %this, %"struct.std::_Bit_reference"** %1, align 8
  store %"struct.std::_Bit_reference"* %__x, %"struct.std::_Bit_reference"** %2, align 8
  %3 = load %"struct.std::_Bit_reference"** %1
  %4 = call zeroext i1 @_ZNKSt14_Bit_referencecvbEv(%"struct.std::_Bit_reference"* %3) #8
  br i1 %4, label %8, label %5

; <label>:5                                       ; preds = %0
  %6 = load %"struct.std::_Bit_reference"** %2, align 8
  %7 = call zeroext i1 @_ZNKSt14_Bit_referencecvbEv(%"struct.std::_Bit_reference"* %6) #8
  br label %8

; <label>:8                                       ; preds = %5, %0
  %9 = phi i1 [ false, %0 ], [ %7, %5 ]
  ret i1 %9
}

; Function Attrs: nounwind uwtable
define linkonce_odr void @_ZNSt14_Bit_reference4flipEv(%"struct.std::_Bit_reference"* %this) #2 align 2 {
  %1 = alloca %"struct.std::_Bit_reference"*, align 8
  store %"struct.std::_Bit_reference"* %this, %"struct.std::_Bit_reference"** %1, align 8
  %2 = load %"struct.std::_Bit_reference"** %1
  %3 = getelementptr inbounds %"struct.std::_Bit_reference"* %2, i32 0, i32 1
  %4 = load i64* %3, align 8
  %5 = getelementptr inbounds %"struct.std::_Bit_reference"* %2, i32 0, i32 0
  %6 = load i64** %5, align 8
  %7 = load i64* %6, align 8
  %8 = xor i64 %7, %4
  store i64 %8, i64* %6, align 8
  ret void
}

; Function Attrs: nounwind uwtable
define linkonce_odr void @_ZNSt18_Bit_iterator_baseC2EPmj(%"struct.std::_Bit_iterator_base"* %this, i64* %__x, i32 %__y) unnamed_addr #2 align 2 {
  %1 = alloca %"struct.std::_Bit_iterator_base"*, align 8
  %2 = alloca i64*, align 8
  %3 = alloca i32, align 4
  store %"struct.std::_Bit_iterator_base"* %this, %"struct.std::_Bit_iterator_base"** %1, align 8
  store i64* %__x, i64** %2, align 8
  store i32 %__y, i32* %3, align 4
  %4 = load %"struct.std::_Bit_iterator_base"** %1
  %5 = bitcast %"struct.std::_Bit_iterator_base"* %4 to %"struct.std::iterator"*
  %6 = getelementptr inbounds %"struct.std::_Bit_iterator_base"* %4, i32 0, i32 0
  %7 = load i64** %2, align 8
  store i64* %7, i64** %6, align 8
  %8 = getelementptr inbounds %"struct.std::_Bit_iterator_base"* %4, i32 0, i32 1
  %9 = load i32* %3, align 4
  store i32 %9, i32* %8, align 4
  ret void
}

; Function Attrs: nounwind uwtable
define linkonce_odr void @_ZNSt18_Bit_iterator_base10_M_bump_upEv(%"struct.std::_Bit_iterator_base"* %this) #2 align 2 {
  %1 = alloca %"struct.std::_Bit_iterator_base"*, align 8
  store %"struct.std::_Bit_iterator_base"* %this, %"struct.std::_Bit_iterator_base"** %1, align 8
  %2 = load %"struct.std::_Bit_iterator_base"** %1
  %3 = getelementptr inbounds %"struct.std::_Bit_iterator_base"* %2, i32 0, i32 1
  %4 = load i32* %3, align 4
  %5 = add i32 %4, 1
  store i32 %5, i32* %3, align 4
  %6 = icmp eq i32 %4, 63
  br i1 %6, label %7, label %12

; <label>:7                                       ; preds = %0
  %8 = getelementptr inbounds %"struct.std::_Bit_iterator_base"* %2, i32 0, i32 1
  store i32 0, i32* %8, align 4
  %9 = getelementptr inbounds %"struct.std::_Bit_iterator_base"* %2, i32 0, i32 0
  %10 = load i64** %9, align 8
  %11 = getelementptr inbounds i64* %10, i32 1
  store i64* %11, i64** %9, align 8
  br label %12

; <label>:12                                      ; preds = %7, %0
  ret void
}

; Function Attrs: nounwind uwtable
define linkonce_odr void @_ZNSt18_Bit_iterator_base12_M_bump_downEv(%"struct.std::_Bit_iterator_base"* %this) #2 align 2 {
  %1 = alloca %"struct.std::_Bit_iterator_base"*, align 8
  store %"struct.std::_Bit_iterator_base"* %this, %"struct.std::_Bit_iterator_base"** %1, align 8
  %2 = load %"struct.std::_Bit_iterator_base"** %1
  %3 = getelementptr inbounds %"struct.std::_Bit_iterator_base"* %2, i32 0, i32 1
  %4 = load i32* %3, align 4
  %5 = add i32 %4, -1
  store i32 %5, i32* %3, align 4
  %6 = icmp eq i32 %4, 0
  br i1 %6, label %7, label %12

; <label>:7                                       ; preds = %0
  %8 = getelementptr inbounds %"struct.std::_Bit_iterator_base"* %2, i32 0, i32 1
  store i32 63, i32* %8, align 4
  %9 = getelementptr inbounds %"struct.std::_Bit_iterator_base"* %2, i32 0, i32 0
  %10 = load i64** %9, align 8
  %11 = getelementptr inbounds i64* %10, i32 -1
  store i64* %11, i64** %9, align 8
  br label %12

; <label>:12                                      ; preds = %7, %0
  ret void
}

; Function Attrs: nounwind uwtable
define linkonce_odr void @_ZNSt18_Bit_iterator_base7_M_incrEl(%"struct.std::_Bit_iterator_base"* %this, i64 %__i) #2 align 2 {
  %1 = alloca %"struct.std::_Bit_iterator_base"*, align 8
  %2 = alloca i64, align 8
  %__n = alloca i64, align 8
  store %"struct.std::_Bit_iterator_base"* %this, %"struct.std::_Bit_iterator_base"** %1, align 8
  store i64 %__i, i64* %2, align 8
  %3 = load %"struct.std::_Bit_iterator_base"** %1
  %4 = load i64* %2, align 8
  %5 = getelementptr inbounds %"struct.std::_Bit_iterator_base"* %3, i32 0, i32 1
  %6 = load i32* %5, align 4
  %7 = zext i32 %6 to i64
  %8 = add nsw i64 %4, %7
  store i64 %8, i64* %__n, align 8
  %9 = load i64* %__n, align 8
  %10 = sdiv i64 %9, 64
  %11 = getelementptr inbounds %"struct.std::_Bit_iterator_base"* %3, i32 0, i32 0
  %12 = load i64** %11, align 8
  %13 = getelementptr inbounds i64* %12, i64 %10
  store i64* %13, i64** %11, align 8
  %14 = load i64* %__n, align 8
  %15 = srem i64 %14, 64
  store i64 %15, i64* %__n, align 8
  %16 = load i64* %__n, align 8
  %17 = icmp slt i64 %16, 0
  br i1 %17, label %18, label %24

; <label>:18                                      ; preds = %0
  %19 = load i64* %__n, align 8
  %20 = add nsw i64 %19, 64
  store i64 %20, i64* %__n, align 8
  %21 = getelementptr inbounds %"struct.std::_Bit_iterator_base"* %3, i32 0, i32 0
  %22 = load i64** %21, align 8
  %23 = getelementptr inbounds i64* %22, i32 -1
  store i64* %23, i64** %21, align 8
  br label %24

; <label>:24                                      ; preds = %18, %0
  %25 = load i64* %__n, align 8
  %26 = trunc i64 %25 to i32
  %27 = getelementptr inbounds %"struct.std::_Bit_iterator_base"* %3, i32 0, i32 1
  store i32 %26, i32* %27, align 4
  ret void
}

; Function Attrs: nounwind uwtable
define linkonce_odr zeroext i1 @_ZNKSt18_Bit_iterator_baseeqERKS_(%"struct.std::_Bit_iterator_base"* %this, %"struct.std::_Bit_iterator_base"* dereferenceable(16) %__i) #2 align 2 {
  %1 = alloca %"struct.std::_Bit_iterator_base"*, align 8
  %2 = alloca %"struct.std::_Bit_iterator_base"*, align 8
  store %"struct.std::_Bit_iterator_base"* %this, %"struct.std::_Bit_iterator_base"** %1, align 8
  store %"struct.std::_Bit_iterator_base"* %__i, %"struct.std::_Bit_iterator_base"** %2, align 8
  %3 = load %"struct.std::_Bit_iterator_base"** %1
  %4 = getelementptr inbounds %"struct.std::_Bit_iterator_base"* %3, i32 0, i32 0
  %5 = load i64** %4, align 8
  %6 = load %"struct.std::_Bit_iterator_base"** %2, align 8
  %7 = getelementptr inbounds %"struct.std::_Bit_iterator_base"* %6, i32 0, i32 0
  %8 = load i64** %7, align 8
  %9 = icmp eq i64* %5, %8
  br i1 %9, label %10, label %17

; <label>:10                                      ; preds = %0
  %11 = getelementptr inbounds %"struct.std::_Bit_iterator_base"* %3, i32 0, i32 1
  %12 = load i32* %11, align 4
  %13 = load %"struct.std::_Bit_iterator_base"** %2, align 8
  %14 = getelementptr inbounds %"struct.std::_Bit_iterator_base"* %13, i32 0, i32 1
  %15 = load i32* %14, align 4
  %16 = icmp eq i32 %12, %15
  br label %17

; <label>:17                                      ; preds = %10, %0
  %18 = phi i1 [ false, %0 ], [ %16, %10 ]
  ret i1 %18
}

; Function Attrs: nounwind uwtable
define linkonce_odr zeroext i1 @_ZNKSt18_Bit_iterator_baseltERKS_(%"struct.std::_Bit_iterator_base"* %this, %"struct.std::_Bit_iterator_base"* dereferenceable(16) %__i) #2 align 2 {
  %1 = alloca %"struct.std::_Bit_iterator_base"*, align 8
  %2 = alloca %"struct.std::_Bit_iterator_base"*, align 8
  store %"struct.std::_Bit_iterator_base"* %this, %"struct.std::_Bit_iterator_base"** %1, align 8
  store %"struct.std::_Bit_iterator_base"* %__i, %"struct.std::_Bit_iterator_base"** %2, align 8
  %3 = load %"struct.std::_Bit_iterator_base"** %1
  %4 = getelementptr inbounds %"struct.std::_Bit_iterator_base"* %3, i32 0, i32 0
  %5 = load i64** %4, align 8
  %6 = load %"struct.std::_Bit_iterator_base"** %2, align 8
  %7 = getelementptr inbounds %"struct.std::_Bit_iterator_base"* %6, i32 0, i32 0
  %8 = load i64** %7, align 8
  %9 = icmp ult i64* %5, %8
  br i1 %9, label %26, label %10

; <label>:10                                      ; preds = %0
  %11 = getelementptr inbounds %"struct.std::_Bit_iterator_base"* %3, i32 0, i32 0
  %12 = load i64** %11, align 8
  %13 = load %"struct.std::_Bit_iterator_base"** %2, align 8
  %14 = getelementptr inbounds %"struct.std::_Bit_iterator_base"* %13, i32 0, i32 0
  %15 = load i64** %14, align 8
  %16 = icmp eq i64* %12, %15
  br i1 %16, label %17, label %24

; <label>:17                                      ; preds = %10
  %18 = getelementptr inbounds %"struct.std::_Bit_iterator_base"* %3, i32 0, i32 1
  %19 = load i32* %18, align 4
  %20 = load %"struct.std::_Bit_iterator_base"** %2, align 8
  %21 = getelementptr inbounds %"struct.std::_Bit_iterator_base"* %20, i32 0, i32 1
  %22 = load i32* %21, align 4
  %23 = icmp ult i32 %19, %22
  br label %24

; <label>:24                                      ; preds = %17, %10
  %25 = phi i1 [ false, %10 ], [ %23, %17 ]
  br label %26

; <label>:26                                      ; preds = %24, %0
  %27 = phi i1 [ true, %0 ], [ %25, %24 ]
  ret i1 %27
}

; Function Attrs: nounwind uwtable
define linkonce_odr zeroext i1 @_ZNKSt18_Bit_iterator_basegtERKS_(%"struct.std::_Bit_iterator_base"* %this, %"struct.std::_Bit_iterator_base"* dereferenceable(16) %__i) #2 align 2 {
  %1 = alloca %"struct.std::_Bit_iterator_base"*, align 8
  %2 = alloca %"struct.std::_Bit_iterator_base"*, align 8
  store %"struct.std::_Bit_iterator_base"* %this, %"struct.std::_Bit_iterator_base"** %1, align 8
  store %"struct.std::_Bit_iterator_base"* %__i, %"struct.std::_Bit_iterator_base"** %2, align 8
  %3 = load %"struct.std::_Bit_iterator_base"** %1
  %4 = load %"struct.std::_Bit_iterator_base"** %2, align 8
  %5 = call zeroext i1 @_ZNKSt18_Bit_iterator_baseltERKS_(%"struct.std::_Bit_iterator_base"* %4, %"struct.std::_Bit_iterator_base"* dereferenceable(16) %3)
  ret i1 %5
}

; Function Attrs: nounwind uwtable
define linkonce_odr zeroext i1 @_ZNKSt18_Bit_iterator_baseleERKS_(%"struct.std::_Bit_iterator_base"* %this, %"struct.std::_Bit_iterator_base"* dereferenceable(16) %__i) #2 align 2 {
  %1 = alloca %"struct.std::_Bit_iterator_base"*, align 8
  %2 = alloca %"struct.std::_Bit_iterator_base"*, align 8
  store %"struct.std::_Bit_iterator_base"* %this, %"struct.std::_Bit_iterator_base"** %1, align 8
  store %"struct.std::_Bit_iterator_base"* %__i, %"struct.std::_Bit_iterator_base"** %2, align 8
  %3 = load %"struct.std::_Bit_iterator_base"** %1
  %4 = load %"struct.std::_Bit_iterator_base"** %2, align 8
  %5 = call zeroext i1 @_ZNKSt18_Bit_iterator_baseltERKS_(%"struct.std::_Bit_iterator_base"* %4, %"struct.std::_Bit_iterator_base"* dereferenceable(16) %3)
  %6 = xor i1 %5, true
  ret i1 %6
}

; Function Attrs: nounwind uwtable
define linkonce_odr zeroext i1 @_ZNKSt18_Bit_iterator_basegeERKS_(%"struct.std::_Bit_iterator_base"* %this, %"struct.std::_Bit_iterator_base"* dereferenceable(16) %__i) #2 align 2 {
  %1 = alloca %"struct.std::_Bit_iterator_base"*, align 8
  %2 = alloca %"struct.std::_Bit_iterator_base"*, align 8
  store %"struct.std::_Bit_iterator_base"* %this, %"struct.std::_Bit_iterator_base"** %1, align 8
  store %"struct.std::_Bit_iterator_base"* %__i, %"struct.std::_Bit_iterator_base"** %2, align 8
  %3 = load %"struct.std::_Bit_iterator_base"** %1
  %4 = load %"struct.std::_Bit_iterator_base"** %2, align 8
  %5 = call zeroext i1 @_ZNKSt18_Bit_iterator_baseltERKS_(%"struct.std::_Bit_iterator_base"* %3, %"struct.std::_Bit_iterator_base"* dereferenceable(16) %4)
  %6 = xor i1 %5, true
  ret i1 %6
}

; Function Attrs: nounwind uwtable
define linkonce_odr void @_ZNSt13_Bit_iteratorC2Ev(%"struct.std::_Bit_iterator"* %this) unnamed_addr #2 align 2 {
  %1 = alloca %"struct.std::_Bit_iterator"*, align 8
  store %"struct.std::_Bit_iterator"* %this, %"struct.std::_Bit_iterator"** %1, align 8
  %2 = load %"struct.std::_Bit_iterator"** %1
  %3 = bitcast %"struct.std::_Bit_iterator"* %2 to %"struct.std::_Bit_iterator_base"*
  call void @_ZNSt18_Bit_iterator_baseC2EPmj(%"struct.std::_Bit_iterator_base"* %3, i64* null, i32 0)
  ret void
}

; Function Attrs: nounwind uwtable
define linkonce_odr { i64*, i32 } @_ZNKSt13_Bit_iterator13_M_const_castEv(%"struct.std::_Bit_iterator"* %this) #2 align 2 {
  %1 = alloca %"struct.std::_Bit_iterator", align 8
  %2 = alloca %"struct.std::_Bit_iterator"*, align 8
  store %"struct.std::_Bit_iterator"* %this, %"struct.std::_Bit_iterator"** %2, align 8
  %3 = load %"struct.std::_Bit_iterator"** %2
  %4 = bitcast %"struct.std::_Bit_iterator"* %1 to i8*
  %5 = bitcast %"struct.std::_Bit_iterator"* %3 to i8*
  call void @llvm.memcpy.p0i8.p0i8.i64(i8* %4, i8* %5, i64 16, i32 8, i1 false)
  %6 = bitcast %"struct.std::_Bit_iterator"* %1 to { i64*, i32 }*
  %7 = load { i64*, i32 }* %6, align 1
  ret { i64*, i32 } %7
}

; Function Attrs: nounwind uwtable
define linkonce_odr void @_ZNSt14_Bit_referenceC2EPmm(%"struct.std::_Bit_reference"* %this, i64* %__x, i64 %__y) unnamed_addr #2 align 2 {
  %1 = alloca %"struct.std::_Bit_reference"*, align 8
  %2 = alloca i64*, align 8
  %3 = alloca i64, align 8
  store %"struct.std::_Bit_reference"* %this, %"struct.std::_Bit_reference"** %1, align 8
  store i64* %__x, i64** %2, align 8
  store i64 %__y, i64* %3, align 8
  %4 = load %"struct.std::_Bit_reference"** %1
  %5 = getelementptr inbounds %"struct.std::_Bit_reference"* %4, i32 0, i32 0
  %6 = load i64** %2, align 8
  store i64* %6, i64** %5, align 8
  %7 = getelementptr inbounds %"struct.std::_Bit_reference"* %4, i32 0, i32 1
  %8 = load i64* %3, align 8
  store i64 %8, i64* %7, align 8
  ret void
}

; Function Attrs: nounwind uwtable
define linkonce_odr { i64*, i32 } @_ZNSt13_Bit_iteratorppEi(%"struct.std::_Bit_iterator"* %this, i32) #2 align 2 {
  %2 = alloca %"struct.std::_Bit_iterator", align 8
  %3 = alloca %"struct.std::_Bit_iterator"*, align 8
  %4 = alloca i32, align 4
  store %"struct.std::_Bit_iterator"* %this, %"struct.std::_Bit_iterator"** %3, align 8
  store i32 %0, i32* %4, align 4
  %5 = load %"struct.std::_Bit_iterator"** %3
  %6 = bitcast %"struct.std::_Bit_iterator"* %2 to i8*
  %7 = bitcast %"struct.std::_Bit_iterator"* %5 to i8*
  call void @llvm.memcpy.p0i8.p0i8.i64(i8* %6, i8* %7, i64 16, i32 8, i1 false)
  %8 = bitcast %"struct.std::_Bit_iterator"* %5 to %"struct.std::_Bit_iterator_base"*
  call void @_ZNSt18_Bit_iterator_base10_M_bump_upEv(%"struct.std::_Bit_iterator_base"* %8)
  %9 = bitcast %"struct.std::_Bit_iterator"* %2 to { i64*, i32 }*
  %10 = load { i64*, i32 }* %9, align 1
  ret { i64*, i32 } %10
}

; Function Attrs: nounwind uwtable
define linkonce_odr dereferenceable(16) %"struct.std::_Bit_iterator"* @_ZNSt13_Bit_iteratormmEv(%"struct.std::_Bit_iterator"* %this) #2 align 2 {
  %1 = alloca %"struct.std::_Bit_iterator"*, align 8
  store %"struct.std::_Bit_iterator"* %this, %"struct.std::_Bit_iterator"** %1, align 8
  %2 = load %"struct.std::_Bit_iterator"** %1
  %3 = bitcast %"struct.std::_Bit_iterator"* %2 to %"struct.std::_Bit_iterator_base"*
  call void @_ZNSt18_Bit_iterator_base12_M_bump_downEv(%"struct.std::_Bit_iterator_base"* %3)
  ret %"struct.std::_Bit_iterator"* %2
}

; Function Attrs: nounwind uwtable
define linkonce_odr { i64*, i32 } @_ZNSt13_Bit_iteratormmEi(%"struct.std::_Bit_iterator"* %this, i32) #2 align 2 {
  %2 = alloca %"struct.std::_Bit_iterator", align 8
  %3 = alloca %"struct.std::_Bit_iterator"*, align 8
  %4 = alloca i32, align 4
  store %"struct.std::_Bit_iterator"* %this, %"struct.std::_Bit_iterator"** %3, align 8
  store i32 %0, i32* %4, align 4
  %5 = load %"struct.std::_Bit_iterator"** %3
  %6 = bitcast %"struct.std::_Bit_iterator"* %2 to i8*
  %7 = bitcast %"struct.std::_Bit_iterator"* %5 to i8*
  call void @llvm.memcpy.p0i8.p0i8.i64(i8* %6, i8* %7, i64 16, i32 8, i1 false)
  %8 = bitcast %"struct.std::_Bit_iterator"* %5 to %"struct.std::_Bit_iterator_base"*
  call void @_ZNSt18_Bit_iterator_base12_M_bump_downEv(%"struct.std::_Bit_iterator_base"* %8)
  %9 = bitcast %"struct.std::_Bit_iterator"* %2 to { i64*, i32 }*
  %10 = load { i64*, i32 }* %9, align 1
  ret { i64*, i32 } %10
}

; Function Attrs: nounwind uwtable
define linkonce_odr dereferenceable(16) %"struct.std::_Bit_iterator"* @_ZNSt13_Bit_iteratorpLEl(%"struct.std::_Bit_iterator"* %this, i64 %__i) #2 align 2 {
  %1 = alloca %"struct.std::_Bit_iterator"*, align 8
  %2 = alloca i64, align 8
  store %"struct.std::_Bit_iterator"* %this, %"struct.std::_Bit_iterator"** %1, align 8
  store i64 %__i, i64* %2, align 8
  %3 = load %"struct.std::_Bit_iterator"** %1
  %4 = bitcast %"struct.std::_Bit_iterator"* %3 to %"struct.std::_Bit_iterator_base"*
  %5 = load i64* %2, align 8
  call void @_ZNSt18_Bit_iterator_base7_M_incrEl(%"struct.std::_Bit_iterator_base"* %4, i64 %5)
  ret %"struct.std::_Bit_iterator"* %3
}

; Function Attrs: nounwind uwtable
define linkonce_odr dereferenceable(16) %"struct.std::_Bit_iterator"* @_ZNSt13_Bit_iteratormIEl(%"struct.std::_Bit_iterator"* %this, i64 %__i) #2 align 2 {
  %1 = alloca %"struct.std::_Bit_iterator"*, align 8
  %2 = alloca i64, align 8
  store %"struct.std::_Bit_iterator"* %this, %"struct.std::_Bit_iterator"** %1, align 8
  store i64 %__i, i64* %2, align 8
  %3 = load %"struct.std::_Bit_iterator"** %1
  %4 = load i64* %2, align 8
  %5 = sub nsw i64 0, %4
  %6 = call dereferenceable(16) %"struct.std::_Bit_iterator"* @_ZNSt13_Bit_iteratorpLEl(%"struct.std::_Bit_iterator"* %3, i64 %5)
  ret %"struct.std::_Bit_iterator"* %3
}

; Function Attrs: nounwind uwtable
define linkonce_odr { i64*, i32 } @_ZNKSt13_Bit_iteratormiEl(%"struct.std::_Bit_iterator"* %this, i64 %__i) #2 align 2 {
  %1 = alloca %"struct.std::_Bit_iterator", align 8
  %2 = alloca %"struct.std::_Bit_iterator"*, align 8
  %3 = alloca i64, align 8
  %__tmp = alloca %"struct.std::_Bit_iterator", align 8
  store %"struct.std::_Bit_iterator"* %this, %"struct.std::_Bit_iterator"** %2, align 8
  store i64 %__i, i64* %3, align 8
  %4 = load %"struct.std::_Bit_iterator"** %2
  %5 = bitcast %"struct.std::_Bit_iterator"* %__tmp to i8*
  %6 = bitcast %"struct.std::_Bit_iterator"* %4 to i8*
  call void @llvm.memcpy.p0i8.p0i8.i64(i8* %5, i8* %6, i64 16, i32 8, i1 false)
  %7 = load i64* %3, align 8
  %8 = call dereferenceable(16) %"struct.std::_Bit_iterator"* @_ZNSt13_Bit_iteratormIEl(%"struct.std::_Bit_iterator"* %__tmp, i64 %7)
  %9 = bitcast %"struct.std::_Bit_iterator"* %1 to i8*
  %10 = bitcast %"struct.std::_Bit_iterator"* %8 to i8*
  call void @llvm.memcpy.p0i8.p0i8.i64(i8* %9, i8* %10, i64 16, i32 8, i1 false)
  %11 = bitcast %"struct.std::_Bit_iterator"* %1 to { i64*, i32 }*
  %12 = load { i64*, i32 }* %11, align 1
  ret { i64*, i32 } %12
}

; Function Attrs: uwtable
define linkonce_odr { i64*, i64 } @_ZNKSt13_Bit_iteratorixEl(%"struct.std::_Bit_iterator"* %this, i64 %__i) #7 align 2 {
  %1 = alloca %"struct.std::_Bit_reference", align 8
  %2 = alloca %"struct.std::_Bit_iterator"*, align 8
  %3 = alloca i64, align 8
  %4 = alloca %"struct.std::_Bit_iterator", align 8
  store %"struct.std::_Bit_iterator"* %this, %"struct.std::_Bit_iterator"** %2, align 8
  store i64 %__i, i64* %3, align 8
  %5 = load %"struct.std::_Bit_iterator"** %2
  %6 = load i64* %3, align 8
  %7 = call { i64*, i32 } @_ZNKSt13_Bit_iteratorplEl(%"struct.std::_Bit_iterator"* %5, i64 %6)
  %8 = bitcast %"struct.std::_Bit_iterator"* %4 to { i64*, i32 }*
  %9 = getelementptr { i64*, i32 }* %8, i32 0, i32 0
  %10 = extractvalue { i64*, i32 } %7, 0
  store i64* %10, i64** %9, align 1
  %11 = getelementptr { i64*, i32 }* %8, i32 0, i32 1
  %12 = extractvalue { i64*, i32 } %7, 1
  store i32 %12, i32* %11, align 1
  %13 = call { i64*, i64 } @_ZNKSt13_Bit_iteratordeEv(%"struct.std::_Bit_iterator"* %4)
  %14 = bitcast %"struct.std::_Bit_reference"* %1 to { i64*, i64 }*
  %15 = getelementptr { i64*, i64 }* %14, i32 0, i32 0
  %16 = extractvalue { i64*, i64 } %13, 0
  store i64* %16, i64** %15, align 1
  %17 = getelementptr { i64*, i64 }* %14, i32 0, i32 1
  %18 = extractvalue { i64*, i64 } %13, 1
  store i64 %18, i64* %17, align 1
  %19 = bitcast %"struct.std::_Bit_reference"* %1 to { i64*, i64 }*
  %20 = load { i64*, i64 }* %19, align 1
  ret { i64*, i64 } %20
}

; Function Attrs: nounwind uwtable
define linkonce_odr void @_ZNSt19_Bit_const_iteratorC2Ev(%"struct.std::_Bit_const_iterator"* %this) unnamed_addr #2 align 2 {
  %1 = alloca %"struct.std::_Bit_const_iterator"*, align 8
  store %"struct.std::_Bit_const_iterator"* %this, %"struct.std::_Bit_const_iterator"** %1, align 8
  %2 = load %"struct.std::_Bit_const_iterator"** %1
  %3 = bitcast %"struct.std::_Bit_const_iterator"* %2 to %"struct.std::_Bit_iterator_base"*
  call void @_ZNSt18_Bit_iterator_baseC2EPmj(%"struct.std::_Bit_iterator_base"* %3, i64* null, i32 0)
  ret void
}

; Function Attrs: nounwind uwtable
define linkonce_odr void @_ZNSt19_Bit_const_iteratorC2EPmj(%"struct.std::_Bit_const_iterator"* %this, i64* %__x, i32 %__y) unnamed_addr #2 align 2 {
  %1 = alloca %"struct.std::_Bit_const_iterator"*, align 8
  %2 = alloca i64*, align 8
  %3 = alloca i32, align 4
  store %"struct.std::_Bit_const_iterator"* %this, %"struct.std::_Bit_const_iterator"** %1, align 8
  store i64* %__x, i64** %2, align 8
  store i32 %__y, i32* %3, align 4
  %4 = load %"struct.std::_Bit_const_iterator"** %1
  %5 = bitcast %"struct.std::_Bit_const_iterator"* %4 to %"struct.std::_Bit_iterator_base"*
  %6 = load i64** %2, align 8
  %7 = load i32* %3, align 4
  call void @_ZNSt18_Bit_iterator_baseC2EPmj(%"struct.std::_Bit_iterator_base"* %5, i64* %6, i32 %7)
  ret void
}

; Function Attrs: nounwind uwtable
define linkonce_odr void @_ZNSt19_Bit_const_iteratorC2ERKSt13_Bit_iterator(%"struct.std::_Bit_const_iterator"* %this, %"struct.std::_Bit_iterator"* dereferenceable(16) %__x) unnamed_addr #2 align 2 {
  %1 = alloca %"struct.std::_Bit_const_iterator"*, align 8
  %2 = alloca %"struct.std::_Bit_iterator"*, align 8
  store %"struct.std::_Bit_const_iterator"* %this, %"struct.std::_Bit_const_iterator"** %1, align 8
  store %"struct.std::_Bit_iterator"* %__x, %"struct.std::_Bit_iterator"** %2, align 8
  %3 = load %"struct.std::_Bit_const_iterator"** %1
  %4 = bitcast %"struct.std::_Bit_const_iterator"* %3 to %"struct.std::_Bit_iterator_base"*
  %5 = load %"struct.std::_Bit_iterator"** %2, align 8
  %6 = bitcast %"struct.std::_Bit_iterator"* %5 to %"struct.std::_Bit_iterator_base"*
  %7 = getelementptr inbounds %"struct.std::_Bit_iterator_base"* %6, i32 0, i32 0
  %8 = load i64** %7, align 8
  %9 = load %"struct.std::_Bit_iterator"** %2, align 8
  %10 = bitcast %"struct.std::_Bit_iterator"* %9 to %"struct.std::_Bit_iterator_base"*
  %11 = getelementptr inbounds %"struct.std::_Bit_iterator_base"* %10, i32 0, i32 1
  %12 = load i32* %11, align 4
  call void @_ZNSt18_Bit_iterator_baseC2EPmj(%"struct.std::_Bit_iterator_base"* %4, i64* %8, i32 %12)
  ret void
}

; Function Attrs: uwtable
define linkonce_odr { i64*, i32 } @_ZNKSt19_Bit_const_iterator13_M_const_castEv(%"struct.std::_Bit_const_iterator"* %this) #7 align 2 {
  %1 = alloca %"struct.std::_Bit_iterator", align 8
  %2 = alloca %"struct.std::_Bit_const_iterator"*, align 8
  store %"struct.std::_Bit_const_iterator"* %this, %"struct.std::_Bit_const_iterator"** %2, align 8
  %3 = load %"struct.std::_Bit_const_iterator"** %2
  %4 = bitcast %"struct.std::_Bit_const_iterator"* %3 to %"struct.std::_Bit_iterator_base"*
  %5 = getelementptr inbounds %"struct.std::_Bit_iterator_base"* %4, i32 0, i32 0
  %6 = load i64** %5, align 8
  %7 = bitcast %"struct.std::_Bit_const_iterator"* %3 to %"struct.std::_Bit_iterator_base"*
  %8 = getelementptr inbounds %"struct.std::_Bit_iterator_base"* %7, i32 0, i32 1
  %9 = load i32* %8, align 4
  call void @_ZNSt13_Bit_iteratorC2EPmj(%"struct.std::_Bit_iterator"* %1, i64* %6, i32 %9)
  %10 = bitcast %"struct.std::_Bit_iterator"* %1 to { i64*, i32 }*
  %11 = load { i64*, i32 }* %10, align 1
  ret { i64*, i32 } %11
}

; Function Attrs: uwtable
define linkonce_odr zeroext i1 @_ZNKSt19_Bit_const_iteratordeEv(%"struct.std::_Bit_const_iterator"* %this) #7 align 2 {
  %1 = alloca %"struct.std::_Bit_const_iterator"*, align 8
  %2 = alloca %"struct.std::_Bit_reference", align 8
  store %"struct.std::_Bit_const_iterator"* %this, %"struct.std::_Bit_const_iterator"** %1, align 8
  %3 = load %"struct.std::_Bit_const_iterator"** %1
  %4 = bitcast %"struct.std::_Bit_const_iterator"* %3 to %"struct.std::_Bit_iterator_base"*
  %5 = getelementptr inbounds %"struct.std::_Bit_iterator_base"* %4, i32 0, i32 0
  %6 = load i64** %5, align 8
  %7 = bitcast %"struct.std::_Bit_const_iterator"* %3 to %"struct.std::_Bit_iterator_base"*
  %8 = getelementptr inbounds %"struct.std::_Bit_iterator_base"* %7, i32 0, i32 1
  %9 = load i32* %8, align 4
  %10 = zext i32 %9 to i64
  %11 = shl i64 1, %10
  call void @_ZNSt14_Bit_referenceC2EPmm(%"struct.std::_Bit_reference"* %2, i64* %6, i64 %11)
  %12 = call zeroext i1 @_ZNKSt14_Bit_referencecvbEv(%"struct.std::_Bit_reference"* %2) #8
  ret i1 %12
}

; Function Attrs: nounwind uwtable
define linkonce_odr dereferenceable(16) %"struct.std::_Bit_const_iterator"* @_ZNSt19_Bit_const_iteratorppEv(%"struct.std::_Bit_const_iterator"* %this) #2 align 2 {
  %1 = alloca %"struct.std::_Bit_const_iterator"*, align 8
  store %"struct.std::_Bit_const_iterator"* %this, %"struct.std::_Bit_const_iterator"** %1, align 8
  %2 = load %"struct.std::_Bit_const_iterator"** %1
  %3 = bitcast %"struct.std::_Bit_const_iterator"* %2 to %"struct.std::_Bit_iterator_base"*
  call void @_ZNSt18_Bit_iterator_base10_M_bump_upEv(%"struct.std::_Bit_iterator_base"* %3)
  ret %"struct.std::_Bit_const_iterator"* %2
}

; Function Attrs: nounwind uwtable
define linkonce_odr { i64*, i32 } @_ZNSt19_Bit_const_iteratorppEi(%"struct.std::_Bit_const_iterator"* %this, i32) #2 align 2 {
  %2 = alloca %"struct.std::_Bit_const_iterator", align 8
  %3 = alloca %"struct.std::_Bit_const_iterator"*, align 8
  %4 = alloca i32, align 4
  store %"struct.std::_Bit_const_iterator"* %this, %"struct.std::_Bit_const_iterator"** %3, align 8
  store i32 %0, i32* %4, align 4
  %5 = load %"struct.std::_Bit_const_iterator"** %3
  %6 = bitcast %"struct.std::_Bit_const_iterator"* %2 to i8*
  %7 = bitcast %"struct.std::_Bit_const_iterator"* %5 to i8*
  call void @llvm.memcpy.p0i8.p0i8.i64(i8* %6, i8* %7, i64 16, i32 8, i1 false)
  %8 = bitcast %"struct.std::_Bit_const_iterator"* %5 to %"struct.std::_Bit_iterator_base"*
  call void @_ZNSt18_Bit_iterator_base10_M_bump_upEv(%"struct.std::_Bit_iterator_base"* %8)
  %9 = bitcast %"struct.std::_Bit_const_iterator"* %2 to { i64*, i32 }*
  %10 = load { i64*, i32 }* %9, align 1
  ret { i64*, i32 } %10
}

; Function Attrs: nounwind uwtable
define linkonce_odr dereferenceable(16) %"struct.std::_Bit_const_iterator"* @_ZNSt19_Bit_const_iteratormmEv(%"struct.std::_Bit_const_iterator"* %this) #2 align 2 {
  %1 = alloca %"struct.std::_Bit_const_iterator"*, align 8
  store %"struct.std::_Bit_const_iterator"* %this, %"struct.std::_Bit_const_iterator"** %1, align 8
  %2 = load %"struct.std::_Bit_const_iterator"** %1
  %3 = bitcast %"struct.std::_Bit_const_iterator"* %2 to %"struct.std::_Bit_iterator_base"*
  call void @_ZNSt18_Bit_iterator_base12_M_bump_downEv(%"struct.std::_Bit_iterator_base"* %3)
  ret %"struct.std::_Bit_const_iterator"* %2
}

; Function Attrs: nounwind uwtable
define linkonce_odr { i64*, i32 } @_ZNSt19_Bit_const_iteratormmEi(%"struct.std::_Bit_const_iterator"* %this, i32) #2 align 2 {
  %2 = alloca %"struct.std::_Bit_const_iterator", align 8
  %3 = alloca %"struct.std::_Bit_const_iterator"*, align 8
  %4 = alloca i32, align 4
  store %"struct.std::_Bit_const_iterator"* %this, %"struct.std::_Bit_const_iterator"** %3, align 8
  store i32 %0, i32* %4, align 4
  %5 = load %"struct.std::_Bit_const_iterator"** %3
  %6 = bitcast %"struct.std::_Bit_const_iterator"* %2 to i8*
  %7 = bitcast %"struct.std::_Bit_const_iterator"* %5 to i8*
  call void @llvm.memcpy.p0i8.p0i8.i64(i8* %6, i8* %7, i64 16, i32 8, i1 false)
  %8 = bitcast %"struct.std::_Bit_const_iterator"* %5 to %"struct.std::_Bit_iterator_base"*
  call void @_ZNSt18_Bit_iterator_base12_M_bump_downEv(%"struct.std::_Bit_iterator_base"* %8)
  %9 = bitcast %"struct.std::_Bit_const_iterator"* %2 to { i64*, i32 }*
  %10 = load { i64*, i32 }* %9, align 1
  ret { i64*, i32 } %10
}

; Function Attrs: nounwind uwtable
define linkonce_odr dereferenceable(16) %"struct.std::_Bit_const_iterator"* @_ZNSt19_Bit_const_iteratorpLEl(%"struct.std::_Bit_const_iterator"* %this, i64 %__i) #2 align 2 {
  %1 = alloca %"struct.std::_Bit_const_iterator"*, align 8
  %2 = alloca i64, align 8
  store %"struct.std::_Bit_const_iterator"* %this, %"struct.std::_Bit_const_iterator"** %1, align 8
  store i64 %__i, i64* %2, align 8
  %3 = load %"struct.std::_Bit_const_iterator"** %1
  %4 = bitcast %"struct.std::_Bit_const_iterator"* %3 to %"struct.std::_Bit_iterator_base"*
  %5 = load i64* %2, align 8
  call void @_ZNSt18_Bit_iterator_base7_M_incrEl(%"struct.std::_Bit_iterator_base"* %4, i64 %5)
  ret %"struct.std::_Bit_const_iterator"* %3
}

; Function Attrs: nounwind uwtable
define linkonce_odr dereferenceable(16) %"struct.std::_Bit_const_iterator"* @_ZNSt19_Bit_const_iteratormIEl(%"struct.std::_Bit_const_iterator"* %this, i64 %__i) #2 align 2 {
  %1 = alloca %"struct.std::_Bit_const_iterator"*, align 8
  %2 = alloca i64, align 8
  store %"struct.std::_Bit_const_iterator"* %this, %"struct.std::_Bit_const_iterator"** %1, align 8
  store i64 %__i, i64* %2, align 8
  %3 = load %"struct.std::_Bit_const_iterator"** %1
  %4 = load i64* %2, align 8
  %5 = sub nsw i64 0, %4
  %6 = call dereferenceable(16) %"struct.std::_Bit_const_iterator"* @_ZNSt19_Bit_const_iteratorpLEl(%"struct.std::_Bit_const_iterator"* %3, i64 %5)
  ret %"struct.std::_Bit_const_iterator"* %3
}

; Function Attrs: nounwind uwtable
define linkonce_odr { i64*, i32 } @_ZNKSt19_Bit_const_iteratormiEl(%"struct.std::_Bit_const_iterator"* %this, i64 %__i) #2 align 2 {
  %1 = alloca %"struct.std::_Bit_const_iterator", align 8
  %2 = alloca %"struct.std::_Bit_const_iterator"*, align 8
  %3 = alloca i64, align 8
  %__tmp = alloca %"struct.std::_Bit_const_iterator", align 8
  store %"struct.std::_Bit_const_iterator"* %this, %"struct.std::_Bit_const_iterator"** %2, align 8
  store i64 %__i, i64* %3, align 8
  %4 = load %"struct.std::_Bit_const_iterator"** %2
  %5 = bitcast %"struct.std::_Bit_const_iterator"* %__tmp to i8*
  %6 = bitcast %"struct.std::_Bit_const_iterator"* %4 to i8*
  call void @llvm.memcpy.p0i8.p0i8.i64(i8* %5, i8* %6, i64 16, i32 8, i1 false)
  %7 = load i64* %3, align 8
  %8 = call dereferenceable(16) %"struct.std::_Bit_const_iterator"* @_ZNSt19_Bit_const_iteratormIEl(%"struct.std::_Bit_const_iterator"* %__tmp, i64 %7)
  %9 = bitcast %"struct.std::_Bit_const_iterator"* %1 to i8*
  %10 = bitcast %"struct.std::_Bit_const_iterator"* %8 to i8*
  call void @llvm.memcpy.p0i8.p0i8.i64(i8* %9, i8* %10, i64 16, i32 8, i1 false)
  %11 = bitcast %"struct.std::_Bit_const_iterator"* %1 to { i64*, i32 }*
  %12 = load { i64*, i32 }* %11, align 1
  ret { i64*, i32 } %12
}

; Function Attrs: uwtable
define linkonce_odr zeroext i1 @_ZNKSt19_Bit_const_iteratorixEl(%"struct.std::_Bit_const_iterator"* %this, i64 %__i) #7 align 2 {
  %1 = alloca %"struct.std::_Bit_const_iterator"*, align 8
  %2 = alloca i64, align 8
  %3 = alloca %"struct.std::_Bit_const_iterator", align 8
  store %"struct.std::_Bit_const_iterator"* %this, %"struct.std::_Bit_const_iterator"** %1, align 8
  store i64 %__i, i64* %2, align 8
  %4 = load %"struct.std::_Bit_const_iterator"** %1
  %5 = load i64* %2, align 8
  %6 = call { i64*, i32 } @_ZNKSt19_Bit_const_iteratorplEl(%"struct.std::_Bit_const_iterator"* %4, i64 %5)
  %7 = bitcast %"struct.std::_Bit_const_iterator"* %3 to { i64*, i32 }*
  %8 = getelementptr { i64*, i32 }* %7, i32 0, i32 0
  %9 = extractvalue { i64*, i32 } %6, 0
  store i64* %9, i64** %8, align 1
  %10 = getelementptr { i64*, i32 }* %7, i32 0, i32 1
  %11 = extractvalue { i64*, i32 } %6, 1
  store i32 %11, i32* %10, align 1
  %12 = call zeroext i1 @_ZNKSt19_Bit_const_iteratordeEv(%"struct.std::_Bit_const_iterator"* %3)
  ret i1 %12
}

; Function Attrs: nounwind uwtable
define linkonce_odr i64 @_ZNKSt4hashIbEclEb(%"struct.std::hash"* %this, i1 zeroext %__val) #2 align 2 {
  %1 = alloca %"struct.std::hash"*, align 8
  %2 = alloca i8, align 1
  store %"struct.std::hash"* %this, %"struct.std::hash"** %1, align 8
  %3 = zext i1 %__val to i8
  store i8 %3, i8* %2, align 1
  %4 = load %"struct.std::hash"** %1
  %5 = load i8* %2, align 1
  %6 = trunc i8 %5 to i1
  %7 = zext i1 %6 to i64
  ret i64 %7
}

; Function Attrs: nounwind uwtable
define linkonce_odr i64 @_ZNKSt4hashIcEclEc(%"struct.std::hash.0"* %this, i8 signext %__val) #2 align 2 {
  %1 = alloca %"struct.std::hash.0"*, align 8
  %2 = alloca i8, align 1
  store %"struct.std::hash.0"* %this, %"struct.std::hash.0"** %1, align 8
  store i8 %__val, i8* %2, align 1
  %3 = load %"struct.std::hash.0"** %1
  %4 = load i8* %2, align 1
  %5 = sext i8 %4 to i64
  ret i64 %5
}

; Function Attrs: nounwind uwtable
define linkonce_odr i64 @_ZNKSt4hashIaEclEa(%"struct.std::hash.2"* %this, i8 signext %__val) #2 align 2 {
  %1 = alloca %"struct.std::hash.2"*, align 8
  %2 = alloca i8, align 1
  store %"struct.std::hash.2"* %this, %"struct.std::hash.2"** %1, align 8
  store i8 %__val, i8* %2, align 1
  %3 = load %"struct.std::hash.2"** %1
  %4 = load i8* %2, align 1
  %5 = sext i8 %4 to i64
  ret i64 %5
}

; Function Attrs: nounwind uwtable
define linkonce_odr i64 @_ZNKSt4hashIhEclEh(%"struct.std::hash.4"* %this, i8 zeroext %__val) #2 align 2 {
  %1 = alloca %"struct.std::hash.4"*, align 8
  %2 = alloca i8, align 1
  store %"struct.std::hash.4"* %this, %"struct.std::hash.4"** %1, align 8
  store i8 %__val, i8* %2, align 1
  %3 = load %"struct.std::hash.4"** %1
  %4 = load i8* %2, align 1
  %5 = zext i8 %4 to i64
  ret i64 %5
}

; Function Attrs: nounwind uwtable
define linkonce_odr i64 @_ZNKSt4hashIwEclEw(%"struct.std::hash.6"* %this, i32 signext %__val) #2 align 2 {
  %1 = alloca %"struct.std::hash.6"*, align 8
  %2 = alloca i32, align 4
  store %"struct.std::hash.6"* %this, %"struct.std::hash.6"** %1, align 8
  store i32 %__val, i32* %2, align 4
  %3 = load %"struct.std::hash.6"** %1
  %4 = load i32* %2, align 4
  %5 = sext i32 %4 to i64
  ret i64 %5
}

; Function Attrs: nounwind uwtable
define linkonce_odr i64 @_ZNKSt4hashIDsEclEDs(%"struct.std::hash.8"* %this, i16 zeroext %__val) #2 align 2 {
  %1 = alloca %"struct.std::hash.8"*, align 8
  %2 = alloca i16, align 2
  store %"struct.std::hash.8"* %this, %"struct.std::hash.8"** %1, align 8
  store i16 %__val, i16* %2, align 2
  %3 = load %"struct.std::hash.8"** %1
  %4 = load i16* %2, align 2
  %5 = zext i16 %4 to i64
  ret i64 %5
}

; Function Attrs: nounwind uwtable
define linkonce_odr i64 @_ZNKSt4hashIDiEclEDi(%"struct.std::hash.10"* %this, i32 zeroext %__val) #2 align 2 {
  %1 = alloca %"struct.std::hash.10"*, align 8
  %2 = alloca i32, align 4
  store %"struct.std::hash.10"* %this, %"struct.std::hash.10"** %1, align 8
  store i32 %__val, i32* %2, align 4
  %3 = load %"struct.std::hash.10"** %1
  %4 = load i32* %2, align 4
  %5 = zext i32 %4 to i64
  ret i64 %5
}

; Function Attrs: nounwind uwtable
define linkonce_odr i64 @_ZNKSt4hashIsEclEs(%"struct.std::hash.12"* %this, i16 signext %__val) #2 align 2 {
  %1 = alloca %"struct.std::hash.12"*, align 8
  %2 = alloca i16, align 2
  store %"struct.std::hash.12"* %this, %"struct.std::hash.12"** %1, align 8
  store i16 %__val, i16* %2, align 2
  %3 = load %"struct.std::hash.12"** %1
  %4 = load i16* %2, align 2
  %5 = sext i16 %4 to i64
  ret i64 %5
}

; Function Attrs: nounwind uwtable
define linkonce_odr i64 @_ZNKSt4hashIiEclEi(%"struct.std::hash.14"* %this, i32 %__val) #2 align 2 {
  %1 = alloca %"struct.std::hash.14"*, align 8
  %2 = alloca i32, align 4
  store %"struct.std::hash.14"* %this, %"struct.std::hash.14"** %1, align 8
  store i32 %__val, i32* %2, align 4
  %3 = load %"struct.std::hash.14"** %1
  %4 = load i32* %2, align 4
  %5 = sext i32 %4 to i64
  ret i64 %5
}

; Function Attrs: nounwind uwtable
define linkonce_odr i64 @_ZNKSt4hashIlEclEl(%"struct.std::hash.16"* %this, i64 %__val) #2 align 2 {
  %1 = alloca %"struct.std::hash.16"*, align 8
  %2 = alloca i64, align 8
  store %"struct.std::hash.16"* %this, %"struct.std::hash.16"** %1, align 8
  store i64 %__val, i64* %2, align 8
  %3 = load %"struct.std::hash.16"** %1
  %4 = load i64* %2, align 8
  ret i64 %4
}

; Function Attrs: nounwind uwtable
define linkonce_odr i64 @_ZNKSt4hashIxEclEx(%"struct.std::hash.18"* %this, i64 %__val) #2 align 2 {
  %1 = alloca %"struct.std::hash.18"*, align 8
  %2 = alloca i64, align 8
  store %"struct.std::hash.18"* %this, %"struct.std::hash.18"** %1, align 8
  store i64 %__val, i64* %2, align 8
  %3 = load %"struct.std::hash.18"** %1
  %4 = load i64* %2, align 8
  ret i64 %4
}

; Function Attrs: nounwind uwtable
define linkonce_odr i64 @_ZNKSt4hashItEclEt(%"struct.std::hash.20"* %this, i16 zeroext %__val) #2 align 2 {
  %1 = alloca %"struct.std::hash.20"*, align 8
  %2 = alloca i16, align 2
  store %"struct.std::hash.20"* %this, %"struct.std::hash.20"** %1, align 8
  store i16 %__val, i16* %2, align 2
  %3 = load %"struct.std::hash.20"** %1
  %4 = load i16* %2, align 2
  %5 = zext i16 %4 to i64
  ret i64 %5
}

; Function Attrs: nounwind uwtable
define linkonce_odr i64 @_ZNKSt4hashIjEclEj(%"struct.std::hash.22"* %this, i32 %__val) #2 align 2 {
  %1 = alloca %"struct.std::hash.22"*, align 8
  %2 = alloca i32, align 4
  store %"struct.std::hash.22"* %this, %"struct.std::hash.22"** %1, align 8
  store i32 %__val, i32* %2, align 4
  %3 = load %"struct.std::hash.22"** %1
  %4 = load i32* %2, align 4
  %5 = zext i32 %4 to i64
  ret i64 %5
}

; Function Attrs: nounwind uwtable
define linkonce_odr i64 @_ZNKSt4hashImEclEm(%"struct.std::hash.24"* %this, i64 %__val) #2 align 2 {
  %1 = alloca %"struct.std::hash.24"*, align 8
  %2 = alloca i64, align 8
  store %"struct.std::hash.24"* %this, %"struct.std::hash.24"** %1, align 8
  store i64 %__val, i64* %2, align 8
  %3 = load %"struct.std::hash.24"** %1
  %4 = load i64* %2, align 8
  ret i64 %4
}

; Function Attrs: nounwind uwtable
define linkonce_odr i64 @_ZNKSt4hashIyEclEy(%"struct.std::hash.26"* %this, i64 %__val) #2 align 2 {
  %1 = alloca %"struct.std::hash.26"*, align 8
  %2 = alloca i64, align 8
  store %"struct.std::hash.26"* %this, %"struct.std::hash.26"** %1, align 8
  store i64 %__val, i64* %2, align 8
  %3 = load %"struct.std::hash.26"** %1
  %4 = load i64* %2, align 8
  ret i64 %4
}

; Function Attrs: uwtable
define linkonce_odr i64 @_ZNSt10_Hash_impl4hashEPKvmm(i8* %__ptr, i64 %__clength, i64 %__seed) #7 align 2 {
  %1 = alloca i8*, align 8
  %2 = alloca i64, align 8
  %3 = alloca i64, align 8
  store i8* %__ptr, i8** %1, align 8
  store i64 %__clength, i64* %2, align 8
  store i64 %__seed, i64* %3, align 8
  %4 = load i8** %1, align 8
  %5 = load i64* %2, align 8
  %6 = load i64* %3, align 8
  %7 = call i64 @_ZSt11_Hash_bytesPKvmm(i8* %4, i64 %5, i64 %6)
  ret i64 %7
}

declare i64 @_ZSt11_Hash_bytesPKvmm(i8*, i64, i64) #9

; Function Attrs: uwtable
define linkonce_odr i64 @_ZNSt14_Fnv_hash_impl4hashEPKvmm(i8* %__ptr, i64 %__clength, i64 %__seed) #7 align 2 {
  %1 = alloca i8*, align 8
  %2 = alloca i64, align 8
  %3 = alloca i64, align 8
  store i8* %__ptr, i8** %1, align 8
  store i64 %__clength, i64* %2, align 8
  store i64 %__seed, i64* %3, align 8
  %4 = load i8** %1, align 8
  %5 = load i64* %2, align 8
  %6 = load i64* %3, align 8
  %7 = call i64 @_ZSt15_Fnv_hash_bytesPKvmm(i8* %4, i64 %5, i64 %6)
  ret i64 %7
}

declare i64 @_ZSt15_Fnv_hash_bytesPKvmm(i8*, i64, i64) #9

; Function Attrs: nounwind uwtable
define linkonce_odr i64 @_ZNKSt4hashIfEclEf(%"struct.std::hash.28"* %this, float %__val) #2 align 2 {
  %1 = alloca %"struct.std::hash.28"*, align 8
  %2 = alloca float, align 4
  store %"struct.std::hash.28"* %this, %"struct.std::hash.28"** %1, align 8
  store float %__val, float* %2, align 4
  %3 = load %"struct.std::hash.28"** %1
  %4 = load float* %2, align 4
  %5 = fcmp une float %4, 0.000000e+00
  br i1 %5, label %6, label %9

; <label>:6                                       ; preds = %0
  %7 = invoke i64 @_ZNSt10_Hash_impl4hashIfEEmRKT_(float* dereferenceable(4) %2)
          to label %8 unwind label %12

; <label>:8                                       ; preds = %6
  br label %10

; <label>:9                                       ; preds = %0
  br label %10

; <label>:10                                      ; preds = %9, %8
  %11 = phi i64 [ %7, %8 ], [ 0, %9 ]
  ret i64 %11

; <label>:12                                      ; preds = %6
  %13 = landingpad { i8*, i32 } personality i8* bitcast (i32 (...)* @__gxx_personality_v0 to i8*)
          catch i8* null
  %14 = extractvalue { i8*, i32 } %13, 0
  call void @__clang_call_terminate(i8* %14) #18
  unreachable
}

; Function Attrs: uwtable
define linkonce_odr i64 @_ZNSt10_Hash_impl4hashIfEEmRKT_(float* dereferenceable(4) %__val) #7 align 2 {
  %1 = alloca float*, align 8
  store float* %__val, float** %1, align 8
  %2 = load float** %1, align 8
  %3 = bitcast float* %2 to i8*
  %4 = call i64 @_ZNSt10_Hash_impl4hashEPKvmm(i8* %3, i64 4, i64 3339675911)
  ret i64 %4
}

; Function Attrs: noinline noreturn nounwind
define linkonce_odr hidden void @__clang_call_terminate(i8*) #10 {
  %2 = call i8* @__cxa_begin_catch(i8* %0) #8
  call void @_ZSt9terminatev() #18
  unreachable
}

declare i8* @__cxa_begin_catch(i8*)

declare void @_ZSt9terminatev()

; Function Attrs: nounwind uwtable
define linkonce_odr i64 @_ZNKSt4hashIdEclEd(%"struct.std::hash.30"* %this, double %__val) #2 align 2 {
  %1 = alloca %"struct.std::hash.30"*, align 8
  %2 = alloca double, align 8
  store %"struct.std::hash.30"* %this, %"struct.std::hash.30"** %1, align 8
  store double %__val, double* %2, align 8
  %3 = load %"struct.std::hash.30"** %1
  %4 = load double* %2, align 8
  %5 = fcmp une double %4, 0.000000e+00
  br i1 %5, label %6, label %9

; <label>:6                                       ; preds = %0
  %7 = invoke i64 @_ZNSt10_Hash_impl4hashIdEEmRKT_(double* dereferenceable(8) %2)
          to label %8 unwind label %12

; <label>:8                                       ; preds = %6
  br label %10

; <label>:9                                       ; preds = %0
  br label %10

; <label>:10                                      ; preds = %9, %8
  %11 = phi i64 [ %7, %8 ], [ 0, %9 ]
  ret i64 %11

; <label>:12                                      ; preds = %6
  %13 = landingpad { i8*, i32 } personality i8* bitcast (i32 (...)* @__gxx_personality_v0 to i8*)
          catch i8* null
  %14 = extractvalue { i8*, i32 } %13, 0
  call void @__clang_call_terminate(i8* %14) #18
  unreachable
}

; Function Attrs: uwtable
define linkonce_odr i64 @_ZNSt10_Hash_impl4hashIdEEmRKT_(double* dereferenceable(8) %__val) #7 align 2 {
  %1 = alloca double*, align 8
  store double* %__val, double** %1, align 8
  %2 = load double** %1, align 8
  %3 = bitcast double* %2 to i8*
  %4 = call i64 @_ZNSt10_Hash_impl4hashEPKvmm(i8* %3, i64 8, i64 3339675911)
  ret i64 %4
}

; Function Attrs: nounwind uwtable
define linkonce_odr i8* @_ZNK2fp6Packet4dataEv(%"struct.fp::Packet"* %this) #2 align 2 {
  %1 = alloca %"struct.fp::Packet"*, align 8
  store %"struct.fp::Packet"* %this, %"struct.fp::Packet"** %1, align 8
  %2 = load %"struct.fp::Packet"** %1
  %3 = getelementptr inbounds %"struct.fp::Packet"* %2, i32 0, i32 0
  %4 = bitcast %"struct.fp::Buffer::Flowpath"* %3 to %"struct.fp::Buffer::Base"*
  %5 = getelementptr inbounds %"struct.fp::Buffer::Base"* %4, i32 0, i32 1
  %6 = load i8** %5, align 8
  ret i8* %6
}

; Function Attrs: nounwind uwtable
define linkonce_odr i8* @_ZN2fp6Packet4dataEv(%"struct.fp::Packet"* %this) #2 align 2 {
  %1 = alloca %"struct.fp::Packet"*, align 8
  store %"struct.fp::Packet"* %this, %"struct.fp::Packet"** %1, align 8
  %2 = load %"struct.fp::Packet"** %1
  %3 = getelementptr inbounds %"struct.fp::Packet"* %2, i32 0, i32 0
  %4 = bitcast %"struct.fp::Buffer::Flowpath"* %3 to %"struct.fp::Buffer::Base"*
  %5 = getelementptr inbounds %"struct.fp::Buffer::Base"* %4, i32 0, i32 1
  %6 = load i8** %5, align 8
  ret i8* %6
}

; Function Attrs: inlinehint uwtable
define linkonce_odr dereferenceable(4) %"struct.fp::Binding"* @_ZNK2fp12Binding_list3topEv(%"struct.fp::Binding_list"* %this) #4 align 2 {
  %1 = alloca %"struct.fp::Binding_list"*, align 8
  store %"struct.fp::Binding_list"* %this, %"struct.fp::Binding_list"** %1, align 8
  %2 = load %"struct.fp::Binding_list"** %1
  %3 = call zeroext i1 @_ZNK2fp12Binding_list8is_emptyEv(%"struct.fp::Binding_list"* %2)
  br i1 %3, label %5, label %4

; <label>:4                                       ; preds = %0
  br label %7

; <label>:5                                       ; preds = %0
  call void @__assert_fail(i8* getelementptr inbounds ([12 x i8]* @.str, i32 0, i32 0), i8* getelementptr inbounds ([14 x i8]* @.str1, i32 0, i32 0), i32 82, i8* getelementptr inbounds ([49 x i8]* @__PRETTY_FUNCTION__._ZNK2fp12Binding_list3topEv, i32 0, i32 0)) #18
  unreachable
                                                  ; No predecessors!
  br label %7

; <label>:7                                       ; preds = %6, %4
  %8 = getelementptr inbounds %"struct.fp::Binding_list"* %2, i32 0, i32 1
  %9 = load i32* %8, align 4
  %10 = sext i32 %9 to i64
  %11 = getelementptr inbounds %"struct.fp::Binding_list"* %2, i32 0, i32 0
  %12 = getelementptr inbounds [4 x %"struct.fp::Binding"]* %11, i32 0, i64 %10
  ret %"struct.fp::Binding"* %12
}

; Function Attrs: nounwind uwtable
define linkonce_odr zeroext i1 @_ZNK2fp12Binding_list8is_emptyEv(%"struct.fp::Binding_list"* %this) #2 align 2 {
  %1 = alloca %"struct.fp::Binding_list"*, align 8
  store %"struct.fp::Binding_list"* %this, %"struct.fp::Binding_list"** %1, align 8
  %2 = load %"struct.fp::Binding_list"** %1
  %3 = getelementptr inbounds %"struct.fp::Binding_list"* %2, i32 0, i32 1
  %4 = load i32* %3, align 4
  %5 = icmp eq i32 %4, -1
  ret i1 %5
}

; Function Attrs: noreturn nounwind
declare void @__assert_fail(i8*, i8*, i32, i8*) #11

; Function Attrs: inlinehint uwtable
define linkonce_odr dereferenceable(4) %"struct.fp::Binding"* @_ZN2fp12Binding_list3topEv(%"struct.fp::Binding_list"* %this) #4 align 2 {
  %1 = alloca %"struct.fp::Binding_list"*, align 8
  store %"struct.fp::Binding_list"* %this, %"struct.fp::Binding_list"** %1, align 8
  %2 = load %"struct.fp::Binding_list"** %1
  %3 = call zeroext i1 @_ZNK2fp12Binding_list8is_emptyEv(%"struct.fp::Binding_list"* %2)
  br i1 %3, label %5, label %4

; <label>:4                                       ; preds = %0
  br label %7

; <label>:5                                       ; preds = %0
  call void @__assert_fail(i8* getelementptr inbounds ([12 x i8]* @.str, i32 0, i32 0), i8* getelementptr inbounds ([14 x i8]* @.str1, i32 0, i32 0), i32 90, i8* getelementptr inbounds ([37 x i8]* @__PRETTY_FUNCTION__._ZN2fp12Binding_list3topEv, i32 0, i32 0)) #18
  unreachable
                                                  ; No predecessors!
  br label %7

; <label>:7                                       ; preds = %6, %4
  %8 = getelementptr inbounds %"struct.fp::Binding_list"* %2, i32 0, i32 1
  %9 = load i32* %8, align 4
  %10 = sext i32 %9 to i64
  %11 = getelementptr inbounds %"struct.fp::Binding_list"* %2, i32 0, i32 0
  %12 = getelementptr inbounds [4 x %"struct.fp::Binding"]* %11, i32 0, i64 %10
  ret %"struct.fp::Binding"* %12
}

; Function Attrs: inlinehint uwtable
define linkonce_odr dereferenceable(4) %"struct.fp::Binding"* @_ZNK2fp12Binding_list6bottomEv(%"struct.fp::Binding_list"* %this) #4 align 2 {
  %1 = alloca %"struct.fp::Binding_list"*, align 8
  store %"struct.fp::Binding_list"* %this, %"struct.fp::Binding_list"** %1, align 8
  %2 = load %"struct.fp::Binding_list"** %1
  %3 = call zeroext i1 @_ZNK2fp12Binding_list8is_emptyEv(%"struct.fp::Binding_list"* %2)
  br i1 %3, label %5, label %4

; <label>:4                                       ; preds = %0
  br label %7

; <label>:5                                       ; preds = %0
  call void @__assert_fail(i8* getelementptr inbounds ([12 x i8]* @.str, i32 0, i32 0), i8* getelementptr inbounds ([14 x i8]* @.str1, i32 0, i32 0), i32 99, i8* getelementptr inbounds ([52 x i8]* @__PRETTY_FUNCTION__._ZNK2fp12Binding_list6bottomEv, i32 0, i32 0)) #18
  unreachable
                                                  ; No predecessors!
  br label %7

; <label>:7                                       ; preds = %6, %4
  %8 = getelementptr inbounds %"struct.fp::Binding_list"* %2, i32 0, i32 0
  %9 = getelementptr inbounds [4 x %"struct.fp::Binding"]* %8, i32 0, i64 0
  ret %"struct.fp::Binding"* %9
}

; Function Attrs: inlinehint uwtable
define linkonce_odr dereferenceable(4) %"struct.fp::Binding"* @_ZN2fp12Binding_list6bottomEv(%"struct.fp::Binding_list"* %this) #4 align 2 {
  %1 = alloca %"struct.fp::Binding_list"*, align 8
  store %"struct.fp::Binding_list"* %this, %"struct.fp::Binding_list"** %1, align 8
  %2 = load %"struct.fp::Binding_list"** %1
  %3 = call zeroext i1 @_ZNK2fp12Binding_list8is_emptyEv(%"struct.fp::Binding_list"* %2)
  br i1 %3, label %5, label %4

; <label>:4                                       ; preds = %0
  br label %7

; <label>:5                                       ; preds = %0
  call void @__assert_fail(i8* getelementptr inbounds ([12 x i8]* @.str, i32 0, i32 0), i8* getelementptr inbounds ([14 x i8]* @.str1, i32 0, i32 0), i32 107, i8* getelementptr inbounds ([40 x i8]* @__PRETTY_FUNCTION__._ZN2fp12Binding_list6bottomEv, i32 0, i32 0)) #18
  unreachable
                                                  ; No predecessors!
  br label %7

; <label>:7                                       ; preds = %6, %4
  %8 = getelementptr inbounds %"struct.fp::Binding_list"* %2, i32 0, i32 0
  %9 = getelementptr inbounds [4 x %"struct.fp::Binding"]* %8, i32 0, i64 0
  ret %"struct.fp::Binding"* %9
}

; Function Attrs: inlinehint uwtable
define linkonce_odr void @_ZN2fp12Binding_list4pushENS_7BindingE(%"struct.fp::Binding_list"* %this, i32 %b.coerce) #4 align 2 {
  %b = alloca %"struct.fp::Binding", align 4
  %1 = alloca %"struct.fp::Binding_list"*, align 8
  %2 = bitcast %"struct.fp::Binding"* %b to i32*
  store i32 %b.coerce, i32* %2, align 1
  store %"struct.fp::Binding_list"* %this, %"struct.fp::Binding_list"** %1, align 8
  %3 = load %"struct.fp::Binding_list"** %1
  %4 = call zeroext i1 @_ZNK2fp12Binding_list7is_fullEv(%"struct.fp::Binding_list"* %3)
  br i1 %4, label %6, label %5

; <label>:5                                       ; preds = %0
  br label %8

; <label>:6                                       ; preds = %0
  call void @__assert_fail(i8* getelementptr inbounds ([11 x i8]* @.str2, i32 0, i32 0), i8* getelementptr inbounds ([14 x i8]* @.str1, i32 0, i32 0), i32 118, i8* getelementptr inbounds ([41 x i8]* @__PRETTY_FUNCTION__._ZN2fp12Binding_list4pushENS_7BindingE, i32 0, i32 0)) #18
  unreachable
                                                  ; No predecessors!
  br label %8

; <label>:8                                       ; preds = %7, %5
  %9 = getelementptr inbounds %"struct.fp::Binding_list"* %3, i32 0, i32 1
  %10 = load i32* %9, align 4
  %11 = add nsw i32 %10, 1
  store i32 %11, i32* %9, align 4
  %12 = sext i32 %11 to i64
  %13 = getelementptr inbounds %"struct.fp::Binding_list"* %3, i32 0, i32 0
  %14 = getelementptr inbounds [4 x %"struct.fp::Binding"]* %13, i32 0, i64 %12
  %15 = bitcast %"struct.fp::Binding"* %14 to i8*
  %16 = bitcast %"struct.fp::Binding"* %b to i8*
  call void @llvm.memcpy.p0i8.p0i8.i64(i8* %15, i8* %16, i64 4, i32 2, i1 false)
  ret void
}

; Function Attrs: nounwind uwtable
define linkonce_odr zeroext i1 @_ZNK2fp12Binding_list7is_fullEv(%"struct.fp::Binding_list"* %this) #2 align 2 {
  %1 = alloca %"struct.fp::Binding_list"*, align 8
  store %"struct.fp::Binding_list"* %this, %"struct.fp::Binding_list"** %1, align 8
  %2 = load %"struct.fp::Binding_list"** %1
  %3 = getelementptr inbounds %"struct.fp::Binding_list"* %2, i32 0, i32 1
  %4 = load i32* %3, align 4
  %5 = icmp eq i32 %4, 3
  ret i1 %5
}

; Function Attrs: inlinehint uwtable
define linkonce_odr void @_ZN2fp12Binding_list4pushEt(%"struct.fp::Binding_list"* %this, i16 zeroext %n) #4 align 2 {
  %1 = alloca %"struct.fp::Binding_list"*, align 8
  %2 = alloca i16, align 2
  %3 = alloca %"struct.fp::Binding", align 2
  store %"struct.fp::Binding_list"* %this, %"struct.fp::Binding_list"** %1, align 8
  store i16 %n, i16* %2, align 2
  %4 = load %"struct.fp::Binding_list"** %1
  %5 = call zeroext i1 @_ZNK2fp12Binding_list7is_fullEv(%"struct.fp::Binding_list"* %4)
  br i1 %5, label %7, label %6

; <label>:6                                       ; preds = %0
  br label %9

; <label>:7                                       ; preds = %0
  call void @__assert_fail(i8* getelementptr inbounds ([11 x i8]* @.str2, i32 0, i32 0), i8* getelementptr inbounds ([14 x i8]* @.str1, i32 0, i32 0), i32 127, i8* getelementptr inbounds ([43 x i8]* @__PRETTY_FUNCTION__._ZN2fp12Binding_list4pushEt, i32 0, i32 0)) #18
  unreachable
                                                  ; No predecessors!
  br label %9

; <label>:9                                       ; preds = %8, %6
  %10 = getelementptr inbounds %"struct.fp::Binding_list"* %4, i32 0, i32 1
  %11 = load i32* %10, align 4
  %12 = add nsw i32 %11, 1
  store i32 %12, i32* %10, align 4
  %13 = sext i32 %12 to i64
  %14 = getelementptr inbounds %"struct.fp::Binding_list"* %4, i32 0, i32 0
  %15 = getelementptr inbounds [4 x %"struct.fp::Binding"]* %14, i32 0, i64 %13
  %16 = load i16* %2, align 2
  call void @_ZN2fp7BindingC2Et(%"struct.fp::Binding"* %3, i16 zeroext %16)
  %17 = bitcast %"struct.fp::Binding"* %15 to i8*
  %18 = bitcast %"struct.fp::Binding"* %3 to i8*
  call void @llvm.memcpy.p0i8.p0i8.i64(i8* %17, i8* %18, i64 4, i32 2, i1 false)
  ret void
}

; Function Attrs: nounwind uwtable
define linkonce_odr void @_ZN2fp7BindingC2Et(%"struct.fp::Binding"* %this, i16 zeroext %o) unnamed_addr #2 align 2 {
  %1 = alloca %"struct.fp::Binding"*, align 8
  %2 = alloca i16, align 2
  store %"struct.fp::Binding"* %this, %"struct.fp::Binding"** %1, align 8
  store i16 %o, i16* %2, align 2
  %3 = load %"struct.fp::Binding"** %1
  %4 = getelementptr inbounds %"struct.fp::Binding"* %3, i32 0, i32 0
  %5 = load i16* %2, align 2
  store i16 %5, i16* %4, align 2
  %6 = getelementptr inbounds %"struct.fp::Binding"* %3, i32 0, i32 1
  store i16 0, i16* %6, align 2
  ret void
}

; Function Attrs: inlinehint uwtable
define linkonce_odr void @_ZN2fp12Binding_list3popEv(%"struct.fp::Binding_list"* %this) #4 align 2 {
  %1 = alloca %"struct.fp::Binding_list"*, align 8
  store %"struct.fp::Binding_list"* %this, %"struct.fp::Binding_list"** %1, align 8
  %2 = load %"struct.fp::Binding_list"** %1
  %3 = call zeroext i1 @_ZNK2fp12Binding_list8is_emptyEv(%"struct.fp::Binding_list"* %2)
  br i1 %3, label %5, label %4

; <label>:4                                       ; preds = %0
  br label %7

; <label>:5                                       ; preds = %0
  call void @__assert_fail(i8* getelementptr inbounds ([12 x i8]* @.str, i32 0, i32 0), i8* getelementptr inbounds ([14 x i8]* @.str1, i32 0, i32 0), i32 137, i8* getelementptr inbounds ([29 x i8]* @__PRETTY_FUNCTION__._ZN2fp12Binding_list3popEv, i32 0, i32 0)) #18
  unreachable
                                                  ; No predecessors!
  br label %7

; <label>:7                                       ; preds = %6, %4
  %8 = getelementptr inbounds %"struct.fp::Binding_list"* %2, i32 0, i32 1
  %9 = load i32* %8, align 4
  %10 = add nsw i32 %9, -1
  store i32 %10, i32* %8, align 4
  ret void
}

; Function Attrs: inlinehint uwtable
define linkonce_odr void @_ZN2fp11Environment4pushEiNS_7BindingE(%"struct.fp::Environment"* %this, i32 %n, i32 %b.coerce) #4 align 2 {
  %b = alloca %"struct.fp::Binding", align 4
  %1 = alloca %"struct.fp::Environment"*, align 8
  %2 = alloca i32, align 4
  %3 = alloca %"struct.fp::Binding", align 2
  %4 = bitcast %"struct.fp::Binding"* %b to i32*
  store i32 %b.coerce, i32* %4, align 1
  store %"struct.fp::Environment"* %this, %"struct.fp::Environment"** %1, align 8
  store i32 %n, i32* %2, align 4
  %5 = load %"struct.fp::Environment"** %1
  %6 = load i32* %2, align 4
  %7 = icmp sle i32 0, %6
  br i1 %7, label %8, label %12

; <label>:8                                       ; preds = %0
  %9 = load i32* %2, align 4
  %10 = icmp slt i32 %9, 16
  br i1 %10, label %11, label %12

; <label>:11                                      ; preds = %8
  br label %14

; <label>:12                                      ; preds = %8, %0
  call void @__assert_fail(i8* getelementptr inbounds ([25 x i8]* @.str3, i32 0, i32 0), i8* getelementptr inbounds ([14 x i8]* @.str1, i32 0, i32 0), i32 171, i8* getelementptr inbounds ([45 x i8]* @__PRETTY_FUNCTION__._ZN2fp11Environment4pushEiNS_7BindingE, i32 0, i32 0)) #18
  unreachable
                                                  ; No predecessors!
  br label %14

; <label>:14                                      ; preds = %13, %11
  %15 = load i32* %2, align 4
  %16 = sext i32 %15 to i64
  %17 = getelementptr inbounds %"struct.fp::Environment"* %5, i32 0, i32 0
  %18 = getelementptr inbounds [16 x %"struct.fp::Binding_list"]* %17, i32 0, i64 %16
  %19 = bitcast %"struct.fp::Binding"* %3 to i8*
  %20 = bitcast %"struct.fp::Binding"* %b to i8*
  call void @llvm.memcpy.p0i8.p0i8.i64(i8* %19, i8* %20, i64 4, i32 2, i1 false)
  %21 = bitcast %"struct.fp::Binding"* %3 to i32*
  %22 = load i32* %21, align 1
  call void @_ZN2fp12Binding_list4pushENS_7BindingE(%"struct.fp::Binding_list"* %18, i32 %22)
  ret void
}

; Function Attrs: inlinehint uwtable
define linkonce_odr void @_ZN2fp11Environment3popEi(%"struct.fp::Environment"* %this, i32 %n) #4 align 2 {
  %1 = alloca %"struct.fp::Environment"*, align 8
  %2 = alloca i32, align 4
  store %"struct.fp::Environment"* %this, %"struct.fp::Environment"** %1, align 8
  store i32 %n, i32* %2, align 4
  %3 = load %"struct.fp::Environment"** %1
  %4 = load i32* %2, align 4
  %5 = icmp sle i32 0, %4
  br i1 %5, label %6, label %10

; <label>:6                                       ; preds = %0
  %7 = load i32* %2, align 4
  %8 = icmp slt i32 %7, 16
  br i1 %8, label %9, label %10

; <label>:9                                       ; preds = %6
  br label %12

; <label>:10                                      ; preds = %6, %0
  call void @__assert_fail(i8* getelementptr inbounds ([25 x i8]* @.str3, i32 0, i32 0), i8* getelementptr inbounds ([14 x i8]* @.str1, i32 0, i32 0), i32 179, i8* getelementptr inbounds ([31 x i8]* @__PRETTY_FUNCTION__._ZN2fp11Environment3popEi, i32 0, i32 0)) #18
  unreachable
                                                  ; No predecessors!
  br label %12

; <label>:12                                      ; preds = %11, %9
  %13 = load i32* %2, align 4
  %14 = sext i32 %13 to i64
  %15 = getelementptr inbounds %"struct.fp::Environment"* %3, i32 0, i32 0
  %16 = getelementptr inbounds [16 x %"struct.fp::Binding_list"]* %15, i32 0, i64 %14
  call void @_ZN2fp12Binding_list3popEv(%"struct.fp::Binding_list"* %16)
  ret void
}

; Function Attrs: nounwind uwtable
define linkonce_odr zeroext i1 @_ZNK2fp7Binding10is_partialEv(%"struct.fp::Binding"* %this) #2 align 2 {
  %1 = alloca %"struct.fp::Binding"*, align 8
  store %"struct.fp::Binding"* %this, %"struct.fp::Binding"** %1, align 8
  %2 = load %"struct.fp::Binding"** %1
  %3 = getelementptr inbounds %"struct.fp::Binding"* %2, i32 0, i32 1
  %4 = load i16* %3, align 2
  %5 = zext i16 %4 to i32
  %6 = icmp eq i32 %5, 0
  ret i1 %6
}

; Function Attrs: nounwind uwtable
define linkonce_odr void @_ZN2fp12Binding_listC2Ev(%"struct.fp::Binding_list"* %this) unnamed_addr #2 align 2 {
  %1 = alloca %"struct.fp::Binding_list"*, align 8
  store %"struct.fp::Binding_list"* %this, %"struct.fp::Binding_list"** %1, align 8
  %2 = load %"struct.fp::Binding_list"** %1
  %3 = getelementptr inbounds %"struct.fp::Binding_list"* %2, i32 0, i32 0
  %4 = getelementptr inbounds %"struct.fp::Binding_list"* %2, i32 0, i32 1
  store i32 -1, i32* %4, align 4
  ret void
}

; Function Attrs: nounwind uwtable
define linkonce_odr dereferenceable(20) %"struct.fp::Binding_list"* @_ZNK2fp11EnvironmentixEi(%"struct.fp::Environment"* %this, i32 %n) #2 align 2 {
  %1 = alloca %"struct.fp::Environment"*, align 8
  %2 = alloca i32, align 4
  store %"struct.fp::Environment"* %this, %"struct.fp::Environment"** %1, align 8
  store i32 %n, i32* %2, align 4
  %3 = load %"struct.fp::Environment"** %1
  %4 = load i32* %2, align 4
  %5 = sext i32 %4 to i64
  %6 = getelementptr inbounds %"struct.fp::Environment"* %3, i32 0, i32 0
  %7 = getelementptr inbounds [16 x %"struct.fp::Binding_list"]* %6, i32 0, i64 %5
  ret %"struct.fp::Binding_list"* %7
}

; Function Attrs: nounwind uwtable
define linkonce_odr dereferenceable(20) %"struct.fp::Binding_list"* @_ZN2fp11EnvironmentixEi(%"struct.fp::Environment"* %this, i32 %n) #2 align 2 {
  %1 = alloca %"struct.fp::Environment"*, align 8
  %2 = alloca i32, align 4
  store %"struct.fp::Environment"* %this, %"struct.fp::Environment"** %1, align 8
  store i32 %n, i32* %2, align 4
  %3 = load %"struct.fp::Environment"** %1
  %4 = load i32* %2, align 4
  %5 = sext i32 %4 to i64
  %6 = getelementptr inbounds %"struct.fp::Environment"* %3, i32 0, i32 0
  %7 = getelementptr inbounds [16 x %"struct.fp::Binding_list"]* %6, i32 0, i64 %5
  ret %"struct.fp::Binding_list"* %7
}

; Function Attrs: inlinehint nounwind uwtable
define linkonce_odr void @_ZN2fp7Context7advanceEt(%"struct.fp::Context"* %this, i16 zeroext %n) #0 align 2 {
  %1 = alloca %"struct.fp::Context"*, align 8
  %2 = alloca i16, align 2
  store %"struct.fp::Context"* %this, %"struct.fp::Context"** %1, align 8
  store i16 %n, i16* %2, align 2
  %3 = load %"struct.fp::Context"** %1
  %4 = load i16* %2, align 2
  %5 = zext i16 %4 to i32
  %6 = getelementptr inbounds %"struct.fp::Context"* %3, i32 0, i32 2
  %7 = getelementptr inbounds %"struct.fp::Context_current"* %6, i32 0, i32 0
  %8 = load i16* %7, align 2
  %9 = zext i16 %8 to i32
  %10 = add nsw i32 %9, %5
  %11 = trunc i32 %10 to i16
  store i16 %11, i16* %7, align 2
  ret void
}

; Function Attrs: inlinehint nounwind uwtable
define linkonce_odr zeroext i16 @_ZNK2fp7Context6offsetEv(%"struct.fp::Context"* %this) #0 align 2 {
  %1 = alloca %"struct.fp::Context"*, align 8
  store %"struct.fp::Context"* %this, %"struct.fp::Context"** %1, align 8
  %2 = load %"struct.fp::Context"** %1
  %3 = getelementptr inbounds %"struct.fp::Context"* %2, i32 0, i32 2
  %4 = getelementptr inbounds %"struct.fp::Context_current"* %3, i32 0, i32 0
  %5 = load i16* %4, align 2
  ret i16 %5
}

; Function Attrs: inlinehint nounwind uwtable
define linkonce_odr i8* @_ZNK2fp7Context8positionEv(%"struct.fp::Context"* %this) #0 align 2 {
  %1 = alloca %"struct.fp::Context"*, align 8
  store %"struct.fp::Context"* %this, %"struct.fp::Context"** %1, align 8
  %2 = load %"struct.fp::Context"** %1
  %3 = getelementptr inbounds %"struct.fp::Context"* %2, i32 0, i32 0
  %4 = load %"struct.fp::Packet"** %3, align 8
  %5 = call i8* @_ZN2fp6Packet4dataEv(%"struct.fp::Packet"* %4)
  %6 = call zeroext i16 @_ZNK2fp7Context6offsetEv(%"struct.fp::Context"* %2)
  %7 = zext i16 %6 to i32
  %8 = sext i32 %7 to i64
  %9 = getelementptr inbounds i8* %5, i64 %8
  ret i8* %9
}

; Function Attrs: inlinehint nounwind uwtable
define linkonce_odr i8* @_ZN2fp7Context8positionEv(%"struct.fp::Context"* %this) #0 align 2 {
  %1 = alloca %"struct.fp::Context"*, align 8
  store %"struct.fp::Context"* %this, %"struct.fp::Context"** %1, align 8
  %2 = load %"struct.fp::Context"** %1
  %3 = getelementptr inbounds %"struct.fp::Context"* %2, i32 0, i32 0
  %4 = load %"struct.fp::Packet"** %3, align 8
  %5 = call i8* @_ZN2fp6Packet4dataEv(%"struct.fp::Packet"* %4)
  %6 = call zeroext i16 @_ZNK2fp7Context6offsetEv(%"struct.fp::Context"* %2)
  %7 = zext i16 %6 to i32
  %8 = sext i32 %7 to i64
  %9 = getelementptr inbounds i8* %5, i64 %8
  ret i8* %9
}

; Function Attrs: inlinehint uwtable
define linkonce_odr void @_ZN2fp7Context12write_actionENS_6ActionE(%"struct.fp::Context"* %this, %"struct.fp::Action"* byval align 8 %a) #4 align 2 {
  %1 = alloca %"struct.fp::Context"*, align 8
  store %"struct.fp::Context"* %this, %"struct.fp::Context"** %1, align 8
  %2 = load %"struct.fp::Context"** %1
  %3 = getelementptr inbounds %"struct.fp::Context"* %2, i32 0, i32 7
  %4 = bitcast %"struct.fp::Action_set"* %3 to %"class.std::vector"*
  call void @_ZNSt6vectorIN2fp6ActionESaIS1_EE9push_backERKS1_(%"class.std::vector"* %4, %"struct.fp::Action"* dereferenceable(24) %a)
  ret void
}

; Function Attrs: uwtable
define linkonce_odr void @_ZNSt6vectorIN2fp6ActionESaIS1_EE9push_backERKS1_(%"class.std::vector"* %this, %"struct.fp::Action"* dereferenceable(24) %__x) #7 align 2 {
  %1 = alloca %"class.std::vector"*, align 8
  %2 = alloca %"struct.fp::Action"*, align 8
  store %"class.std::vector"* %this, %"class.std::vector"** %1, align 8
  store %"struct.fp::Action"* %__x, %"struct.fp::Action"** %2, align 8
  %3 = load %"class.std::vector"** %1
  %4 = bitcast %"class.std::vector"* %3 to %"struct.std::_Vector_base"*
  %5 = getelementptr inbounds %"struct.std::_Vector_base"* %4, i32 0, i32 0
  %6 = getelementptr inbounds %"struct.std::_Vector_base<fp::Action, std::allocator<fp::Action> >::_Vector_impl"* %5, i32 0, i32 1
  %7 = load %"struct.fp::Action"** %6, align 8
  %8 = bitcast %"class.std::vector"* %3 to %"struct.std::_Vector_base"*
  %9 = getelementptr inbounds %"struct.std::_Vector_base"* %8, i32 0, i32 0
  %10 = getelementptr inbounds %"struct.std::_Vector_base<fp::Action, std::allocator<fp::Action> >::_Vector_impl"* %9, i32 0, i32 2
  %11 = load %"struct.fp::Action"** %10, align 8
  %12 = icmp ne %"struct.fp::Action"* %7, %11
  br i1 %12, label %13, label %27

; <label>:13                                      ; preds = %0
  %14 = bitcast %"class.std::vector"* %3 to %"struct.std::_Vector_base"*
  %15 = getelementptr inbounds %"struct.std::_Vector_base"* %14, i32 0, i32 0
  %16 = bitcast %"struct.std::_Vector_base<fp::Action, std::allocator<fp::Action> >::_Vector_impl"* %15 to %"class.std::allocator"*
  %17 = bitcast %"class.std::vector"* %3 to %"struct.std::_Vector_base"*
  %18 = getelementptr inbounds %"struct.std::_Vector_base"* %17, i32 0, i32 0
  %19 = getelementptr inbounds %"struct.std::_Vector_base<fp::Action, std::allocator<fp::Action> >::_Vector_impl"* %18, i32 0, i32 1
  %20 = load %"struct.fp::Action"** %19, align 8
  %21 = load %"struct.fp::Action"** %2, align 8
  call void @_ZNSt16allocator_traitsISaIN2fp6ActionEEE9constructIS1_JRKS1_EEEDTcl12_S_constructfp_fp0_spclsr3stdE7forwardIT0_Efp1_EEERS2_PT_DpOS7_(%"class.std::allocator"* dereferenceable(1) %16, %"struct.fp::Action"* %20, %"struct.fp::Action"* dereferenceable(24) %21)
  %22 = bitcast %"class.std::vector"* %3 to %"struct.std::_Vector_base"*
  %23 = getelementptr inbounds %"struct.std::_Vector_base"* %22, i32 0, i32 0
  %24 = getelementptr inbounds %"struct.std::_Vector_base<fp::Action, std::allocator<fp::Action> >::_Vector_impl"* %23, i32 0, i32 1
  %25 = load %"struct.fp::Action"** %24, align 8
  %26 = getelementptr inbounds %"struct.fp::Action"* %25, i32 1
  store %"struct.fp::Action"* %26, %"struct.fp::Action"** %24, align 8
  br label %29

; <label>:27                                      ; preds = %0
  %28 = load %"struct.fp::Action"** %2, align 8
  call void @_ZNSt6vectorIN2fp6ActionESaIS1_EE19_M_emplace_back_auxIJRKS1_EEEvDpOT_(%"class.std::vector"* %3, %"struct.fp::Action"* dereferenceable(24) %28)
  br label %29

; <label>:29                                      ; preds = %27, %13
  ret void
}

; Function Attrs: inlinehint uwtable
define linkonce_odr void @_ZN2fp7Context13apply_actionsEv(%"struct.fp::Context"* %this) #4 align 2 {
  %1 = alloca %"struct.fp::Context"*, align 8
  %__range = alloca %"struct.fp::Action_set"*, align 8
  %__begin = alloca %"class.__gnu_cxx::__normal_iterator", align 8
  %__end = alloca %"class.__gnu_cxx::__normal_iterator", align 8
  %a = alloca %"struct.fp::Action"*, align 8
  %2 = alloca %"struct.fp::Action", align 8
  store %"struct.fp::Context"* %this, %"struct.fp::Context"** %1, align 8
  %3 = load %"struct.fp::Context"** %1
  %4 = getelementptr inbounds %"struct.fp::Context"* %3, i32 0, i32 7
  store %"struct.fp::Action_set"* %4, %"struct.fp::Action_set"** %__range, align 8
  %5 = load %"struct.fp::Action_set"** %__range, align 8
  %6 = bitcast %"struct.fp::Action_set"* %5 to %"class.std::vector"*
  %7 = call %"struct.fp::Action"* @_ZNSt6vectorIN2fp6ActionESaIS1_EE5beginEv(%"class.std::vector"* %6) #8
  %8 = getelementptr %"class.__gnu_cxx::__normal_iterator"* %__begin, i32 0, i32 0
  store %"struct.fp::Action"* %7, %"struct.fp::Action"** %8
  %9 = load %"struct.fp::Action_set"** %__range, align 8
  %10 = bitcast %"struct.fp::Action_set"* %9 to %"class.std::vector"*
  %11 = call %"struct.fp::Action"* @_ZNSt6vectorIN2fp6ActionESaIS1_EE3endEv(%"class.std::vector"* %10) #8
  %12 = getelementptr %"class.__gnu_cxx::__normal_iterator"* %__end, i32 0, i32 0
  store %"struct.fp::Action"* %11, %"struct.fp::Action"** %12
  br label %13

; <label>:13                                      ; preds = %20, %0
  %14 = call zeroext i1 @_ZN9__gnu_cxxneIPN2fp6ActionESt6vectorIS2_SaIS2_EEEEbRKNS_17__normal_iteratorIT_T0_EESC_(%"class.__gnu_cxx::__normal_iterator"* dereferenceable(8) %__begin, %"class.__gnu_cxx::__normal_iterator"* dereferenceable(8) %__end) #8
  br i1 %14, label %15, label %22

; <label>:15                                      ; preds = %13
  %16 = call dereferenceable(24) %"struct.fp::Action"* @_ZNK9__gnu_cxx17__normal_iteratorIPN2fp6ActionESt6vectorIS2_SaIS2_EEEdeEv(%"class.__gnu_cxx::__normal_iterator"* %__begin) #8
  store %"struct.fp::Action"* %16, %"struct.fp::Action"** %a, align 8
  %17 = load %"struct.fp::Action"** %a, align 8
  %18 = bitcast %"struct.fp::Action"* %2 to i8*
  %19 = bitcast %"struct.fp::Action"* %17 to i8*
  call void @llvm.memcpy.p0i8.p0i8.i64(i8* %18, i8* %19, i64 24, i32 8, i1 false)
  call void @_ZN2fp7Context12apply_actionENS_6ActionE(%"struct.fp::Context"* %3, %"struct.fp::Action"* byval align 8 %2)
  br label %20

; <label>:20                                      ; preds = %15
  %21 = call dereferenceable(8) %"class.__gnu_cxx::__normal_iterator"* @_ZN9__gnu_cxx17__normal_iteratorIPN2fp6ActionESt6vectorIS2_SaIS2_EEEppEv(%"class.__gnu_cxx::__normal_iterator"* %__begin) #8
  br label %13

; <label>:22                                      ; preds = %13
  ret void
}

; Function Attrs: nounwind uwtable
define linkonce_odr %"struct.fp::Action"* @_ZNSt6vectorIN2fp6ActionESaIS1_EE5beginEv(%"class.std::vector"* %this) #2 align 2 {
  %1 = alloca %"class.__gnu_cxx::__normal_iterator", align 8
  %2 = alloca %"class.std::vector"*, align 8
  store %"class.std::vector"* %this, %"class.std::vector"** %2, align 8
  %3 = load %"class.std::vector"** %2
  %4 = bitcast %"class.std::vector"* %3 to %"struct.std::_Vector_base"*
  %5 = getelementptr inbounds %"struct.std::_Vector_base"* %4, i32 0, i32 0
  %6 = getelementptr inbounds %"struct.std::_Vector_base<fp::Action, std::allocator<fp::Action> >::_Vector_impl"* %5, i32 0, i32 0
  call void @_ZN9__gnu_cxx17__normal_iteratorIPN2fp6ActionESt6vectorIS2_SaIS2_EEEC2ERKS3_(%"class.__gnu_cxx::__normal_iterator"* %1, %"struct.fp::Action"** dereferenceable(8) %6) #8
  %7 = getelementptr %"class.__gnu_cxx::__normal_iterator"* %1, i32 0, i32 0
  %8 = load %"struct.fp::Action"** %7
  ret %"struct.fp::Action"* %8
}

; Function Attrs: nounwind uwtable
define linkonce_odr %"struct.fp::Action"* @_ZNSt6vectorIN2fp6ActionESaIS1_EE3endEv(%"class.std::vector"* %this) #2 align 2 {
  %1 = alloca %"class.__gnu_cxx::__normal_iterator", align 8
  %2 = alloca %"class.std::vector"*, align 8
  store %"class.std::vector"* %this, %"class.std::vector"** %2, align 8
  %3 = load %"class.std::vector"** %2
  %4 = bitcast %"class.std::vector"* %3 to %"struct.std::_Vector_base"*
  %5 = getelementptr inbounds %"struct.std::_Vector_base"* %4, i32 0, i32 0
  %6 = getelementptr inbounds %"struct.std::_Vector_base<fp::Action, std::allocator<fp::Action> >::_Vector_impl"* %5, i32 0, i32 1
  call void @_ZN9__gnu_cxx17__normal_iteratorIPN2fp6ActionESt6vectorIS2_SaIS2_EEEC2ERKS3_(%"class.__gnu_cxx::__normal_iterator"* %1, %"struct.fp::Action"** dereferenceable(8) %6) #8
  %7 = getelementptr %"class.__gnu_cxx::__normal_iterator"* %1, i32 0, i32 0
  %8 = load %"struct.fp::Action"** %7
  ret %"struct.fp::Action"* %8
}

; Function Attrs: inlinehint nounwind uwtable
define linkonce_odr zeroext i1 @_ZN9__gnu_cxxneIPN2fp6ActionESt6vectorIS2_SaIS2_EEEEbRKNS_17__normal_iteratorIT_T0_EESC_(%"class.__gnu_cxx::__normal_iterator"* dereferenceable(8) %__lhs, %"class.__gnu_cxx::__normal_iterator"* dereferenceable(8) %__rhs) #0 {
  %1 = alloca %"class.__gnu_cxx::__normal_iterator"*, align 8
  %2 = alloca %"class.__gnu_cxx::__normal_iterator"*, align 8
  store %"class.__gnu_cxx::__normal_iterator"* %__lhs, %"class.__gnu_cxx::__normal_iterator"** %1, align 8
  store %"class.__gnu_cxx::__normal_iterator"* %__rhs, %"class.__gnu_cxx::__normal_iterator"** %2, align 8
  %3 = load %"class.__gnu_cxx::__normal_iterator"** %1, align 8
  %4 = call dereferenceable(8) %"struct.fp::Action"** @_ZNK9__gnu_cxx17__normal_iteratorIPN2fp6ActionESt6vectorIS2_SaIS2_EEE4baseEv(%"class.__gnu_cxx::__normal_iterator"* %3) #8
  %5 = load %"struct.fp::Action"** %4
  %6 = load %"class.__gnu_cxx::__normal_iterator"** %2, align 8
  %7 = call dereferenceable(8) %"struct.fp::Action"** @_ZNK9__gnu_cxx17__normal_iteratorIPN2fp6ActionESt6vectorIS2_SaIS2_EEE4baseEv(%"class.__gnu_cxx::__normal_iterator"* %6) #8
  %8 = load %"struct.fp::Action"** %7
  %9 = icmp ne %"struct.fp::Action"* %5, %8
  ret i1 %9
}

; Function Attrs: nounwind uwtable
define linkonce_odr dereferenceable(24) %"struct.fp::Action"* @_ZNK9__gnu_cxx17__normal_iteratorIPN2fp6ActionESt6vectorIS2_SaIS2_EEEdeEv(%"class.__gnu_cxx::__normal_iterator"* %this) #2 align 2 {
  %1 = alloca %"class.__gnu_cxx::__normal_iterator"*, align 8
  store %"class.__gnu_cxx::__normal_iterator"* %this, %"class.__gnu_cxx::__normal_iterator"** %1, align 8
  %2 = load %"class.__gnu_cxx::__normal_iterator"** %1
  %3 = getelementptr inbounds %"class.__gnu_cxx::__normal_iterator"* %2, i32 0, i32 0
  %4 = load %"struct.fp::Action"** %3, align 8
  ret %"struct.fp::Action"* %4
}

declare void @_ZN2fp7Context12apply_actionENS_6ActionE(%"struct.fp::Context"*, %"struct.fp::Action"* byval align 8) #9

; Function Attrs: nounwind uwtable
define linkonce_odr dereferenceable(8) %"class.__gnu_cxx::__normal_iterator"* @_ZN9__gnu_cxx17__normal_iteratorIPN2fp6ActionESt6vectorIS2_SaIS2_EEEppEv(%"class.__gnu_cxx::__normal_iterator"* %this) #2 align 2 {
  %1 = alloca %"class.__gnu_cxx::__normal_iterator"*, align 8
  store %"class.__gnu_cxx::__normal_iterator"* %this, %"class.__gnu_cxx::__normal_iterator"** %1, align 8
  %2 = load %"class.__gnu_cxx::__normal_iterator"** %1
  %3 = getelementptr inbounds %"class.__gnu_cxx::__normal_iterator"* %2, i32 0, i32 0
  %4 = load %"struct.fp::Action"** %3, align 8
  %5 = getelementptr inbounds %"struct.fp::Action"* %4, i32 1
  store %"struct.fp::Action"* %5, %"struct.fp::Action"** %3, align 8
  ret %"class.__gnu_cxx::__normal_iterator"* %2
}

; Function Attrs: inlinehint nounwind uwtable
define linkonce_odr void @_ZN2fp7Context13clear_actionsEv(%"struct.fp::Context"* %this) #0 align 2 {
  %1 = alloca %"struct.fp::Context"*, align 8
  store %"struct.fp::Context"* %this, %"struct.fp::Context"** %1, align 8
  %2 = load %"struct.fp::Context"** %1
  %3 = getelementptr inbounds %"struct.fp::Context"* %2, i32 0, i32 7
  %4 = bitcast %"struct.fp::Action_set"* %3 to %"class.std::vector"*
  call void @_ZNSt6vectorIN2fp6ActionESaIS1_EE5clearEv(%"class.std::vector"* %4) #8
  ret void
}

; Function Attrs: nounwind uwtable
define linkonce_odr void @_ZNSt6vectorIN2fp6ActionESaIS1_EE5clearEv(%"class.std::vector"* %this) #2 align 2 {
  %1 = alloca %"class.std::vector"*, align 8
  store %"class.std::vector"* %this, %"class.std::vector"** %1, align 8
  %2 = load %"class.std::vector"** %1
  %3 = bitcast %"class.std::vector"* %2 to %"struct.std::_Vector_base"*
  %4 = getelementptr inbounds %"struct.std::_Vector_base"* %3, i32 0, i32 0
  %5 = getelementptr inbounds %"struct.std::_Vector_base<fp::Action, std::allocator<fp::Action> >::_Vector_impl"* %4, i32 0, i32 0
  %6 = load %"struct.fp::Action"** %5, align 8
  call void @_ZNSt6vectorIN2fp6ActionESaIS1_EE15_M_erase_at_endEPS1_(%"class.std::vector"* %2, %"struct.fp::Action"* %6) #8
  ret void
}

; Function Attrs: inlinehint uwtable
define linkonce_odr void @_ZN2fp7Context11bind_headerEi(%"struct.fp::Context"* %this, i32 %id) #4 align 2 {
  %1 = alloca %"struct.fp::Context"*, align 8
  %2 = alloca i32, align 4
  %3 = alloca %"struct.fp::Binding", align 2
  store %"struct.fp::Context"* %this, %"struct.fp::Context"** %1, align 8
  store i32 %id, i32* %2, align 4
  %4 = load %"struct.fp::Context"** %1
  %5 = getelementptr inbounds %"struct.fp::Context"* %4, i32 0, i32 8
  %6 = load i32* %2, align 4
  %7 = call zeroext i16 @_ZNK2fp7Context6offsetEv(%"struct.fp::Context"* %4)
  call void @_ZN2fp7BindingC2Et(%"struct.fp::Binding"* %3, i16 zeroext %7)
  %8 = bitcast %"struct.fp::Binding"* %3 to i32*
  %9 = load i32* %8, align 1
  call void @_ZN2fp11Environment4pushEiNS_7BindingE(%"struct.fp::Environment"* %5, i32 %6, i32 %9)
  ret void
}

; Function Attrs: inlinehint uwtable
define linkonce_odr void @_ZN2fp7Context10bind_fieldEitt(%"struct.fp::Context"* %this, i32 %id, i16 zeroext %off, i16 zeroext %len) #4 align 2 {
  %1 = alloca %"struct.fp::Context"*, align 8
  %2 = alloca i32, align 4
  %3 = alloca i16, align 2
  %4 = alloca i16, align 2
  %5 = alloca %"struct.fp::Binding", align 2
  store %"struct.fp::Context"* %this, %"struct.fp::Context"** %1, align 8
  store i32 %id, i32* %2, align 4
  store i16 %off, i16* %3, align 2
  store i16 %len, i16* %4, align 2
  %6 = load %"struct.fp::Context"** %1
  %7 = getelementptr inbounds %"struct.fp::Context"* %6, i32 0, i32 9
  %8 = load i32* %2, align 4
  %9 = load i16* %3, align 2
  %10 = load i16* %4, align 2
  call void @_ZN2fp7BindingC2Ett(%"struct.fp::Binding"* %5, i16 zeroext %9, i16 zeroext %10)
  %11 = bitcast %"struct.fp::Binding"* %5 to i32*
  %12 = load i32* %11, align 1
  call void @_ZN2fp11Environment4pushEiNS_7BindingE(%"struct.fp::Environment"* %7, i32 %8, i32 %12)
  ret void
}

; Function Attrs: nounwind uwtable
define linkonce_odr void @_ZN2fp7BindingC2Ett(%"struct.fp::Binding"* %this, i16 zeroext %o, i16 zeroext %n) unnamed_addr #2 align 2 {
  %1 = alloca %"struct.fp::Binding"*, align 8
  %2 = alloca i16, align 2
  %3 = alloca i16, align 2
  store %"struct.fp::Binding"* %this, %"struct.fp::Binding"** %1, align 8
  store i16 %o, i16* %2, align 2
  store i16 %n, i16* %3, align 2
  %4 = load %"struct.fp::Binding"** %1
  %5 = getelementptr inbounds %"struct.fp::Binding"* %4, i32 0, i32 0
  %6 = load i16* %2, align 2
  store i16 %6, i16* %5, align 2
  %7 = getelementptr inbounds %"struct.fp::Binding"* %4, i32 0, i32 1
  %8 = load i16* %3, align 2
  store i16 %8, i16* %7, align 2
  %9 = load i16* %3, align 2
  %10 = zext i16 %9 to i32
  %11 = icmp ne i32 %10, 0
  br i1 %11, label %12, label %13

; <label>:12                                      ; preds = %0
  br label %15

; <label>:13                                      ; preds = %0
  call void @__assert_fail(i8* getelementptr inbounds ([7 x i8]* @.str4, i32 0, i32 0), i8* getelementptr inbounds ([14 x i8]* @.str1, i32 0, i32 0), i32 33, i8* getelementptr inbounds ([51 x i8]* @__PRETTY_FUNCTION__._ZN2fp7BindingC2Ett, i32 0, i32 0)) #18
  unreachable
                                                  ; No predecessors!
  br label %15

; <label>:15                                      ; preds = %14, %12
  ret void
}

; Function Attrs: inlinehint nounwind uwtable
define linkonce_odr i8* @_ZNK2fp7Context9get_fieldEt(%"struct.fp::Context"* %this, i16 zeroext %off) #0 align 2 {
  %1 = alloca %"struct.fp::Context"*, align 8
  %2 = alloca i16, align 2
  store %"struct.fp::Context"* %this, %"struct.fp::Context"** %1, align 8
  store i16 %off, i16* %2, align 2
  %3 = load %"struct.fp::Context"** %1
  %4 = getelementptr inbounds %"struct.fp::Context"* %3, i32 0, i32 0
  %5 = load %"struct.fp::Packet"** %4, align 8
  %6 = call i8* @_ZN2fp6Packet4dataEv(%"struct.fp::Packet"* %5)
  %7 = load i16* %2, align 2
  %8 = zext i16 %7 to i32
  %9 = sext i32 %8 to i64
  %10 = getelementptr inbounds i8* %6, i64 %9
  ret i8* %10
}

; Function Attrs: inlinehint nounwind uwtable
define linkonce_odr i8* @_ZN2fp7Context9get_fieldEt(%"struct.fp::Context"* %this, i16 zeroext %off) #0 align 2 {
  %1 = alloca %"struct.fp::Context"*, align 8
  %2 = alloca i16, align 2
  store %"struct.fp::Context"* %this, %"struct.fp::Context"** %1, align 8
  store i16 %off, i16* %2, align 2
  %3 = load %"struct.fp::Context"** %1
  %4 = getelementptr inbounds %"struct.fp::Context"* %3, i32 0, i32 0
  %5 = load %"struct.fp::Packet"** %4, align 8
  %6 = call i8* @_ZN2fp6Packet4dataEv(%"struct.fp::Packet"* %5)
  %7 = load i16* %2, align 2
  %8 = zext i16 %7 to i32
  %9 = sext i32 %8 to i64
  %10 = getelementptr inbounds i8* %6, i64 %9
  ret i8* %10
}

; Function Attrs: inlinehint uwtable
define linkonce_odr dereferenceable(4) %"struct.fp::Binding"* @_ZNK2fp7Context17get_field_bindingEi(%"struct.fp::Context"* %this, i32 %fld) #4 align 2 {
  %1 = alloca %"struct.fp::Context"*, align 8
  %2 = alloca i32, align 4
  store %"struct.fp::Context"* %this, %"struct.fp::Context"** %1, align 8
  store i32 %fld, i32* %2, align 4
  %3 = load %"struct.fp::Context"** %1
  %4 = getelementptr inbounds %"struct.fp::Context"* %3, i32 0, i32 9
  %5 = load i32* %2, align 4
  %6 = call dereferenceable(20) %"struct.fp::Binding_list"* @_ZNK2fp11EnvironmentixEi(%"struct.fp::Environment"* %4, i32 %5)
  %7 = call dereferenceable(4) %"struct.fp::Binding"* @_ZNK2fp12Binding_list3topEv(%"struct.fp::Binding_list"* %6)
  ret %"struct.fp::Binding"* %7
}

; Function Attrs: inlinehint uwtable
define linkonce_odr dereferenceable(4) %"struct.fp::Binding"* @_ZN2fp7Context17get_field_bindingEi(%"struct.fp::Context"* %this, i32 %fld) #4 align 2 {
  %1 = alloca %"struct.fp::Context"*, align 8
  %2 = alloca i32, align 4
  store %"struct.fp::Context"* %this, %"struct.fp::Context"** %1, align 8
  store i32 %fld, i32* %2, align 4
  %3 = load %"struct.fp::Context"** %1
  %4 = getelementptr inbounds %"struct.fp::Context"* %3, i32 0, i32 9
  %5 = load i32* %2, align 4
  %6 = call dereferenceable(20) %"struct.fp::Binding_list"* @_ZN2fp11EnvironmentixEi(%"struct.fp::Environment"* %4, i32 %5)
  %7 = call dereferenceable(4) %"struct.fp::Binding"* @_ZN2fp12Binding_list3topEv(%"struct.fp::Binding_list"* %6)
  ret %"struct.fp::Binding"* %7
}

; Function Attrs: nounwind uwtable
define linkonce_odr void @_ZN2fp7ContextD2Ev(%"struct.fp::Context"* %this) unnamed_addr #2 align 2 {
  %1 = alloca %"struct.fp::Context"*, align 8
  store %"struct.fp::Context"* %this, %"struct.fp::Context"** %1, align 8
  %2 = load %"struct.fp::Context"** %1
  %3 = getelementptr inbounds %"struct.fp::Context"* %2, i32 0, i32 7
  call void @_ZN2fp10Action_setD2Ev(%"struct.fp::Action_set"* %3) #8
  ret void
}

; Function Attrs: inlinehint nounwind uwtable
define linkonce_odr void @_ZN2fp10Action_setD2Ev(%"struct.fp::Action_set"* %this) unnamed_addr #0 align 2 {
  %1 = alloca %"struct.fp::Action_set"*, align 8
  store %"struct.fp::Action_set"* %this, %"struct.fp::Action_set"** %1, align 8
  %2 = load %"struct.fp::Action_set"** %1
  %3 = bitcast %"struct.fp::Action_set"* %2 to %"class.std::vector"*
  call void @_ZNSt6vectorIN2fp6ActionESaIS1_EED2Ev(%"class.std::vector"* %3) #8
  ret void
}

; Function Attrs: nounwind uwtable
define linkonce_odr %"struct.fp::Packet"* @_ZNK2fp7Context6packetEv(%"struct.fp::Context"* %this) #2 align 2 {
  %1 = alloca %"struct.fp::Context"*, align 8
  store %"struct.fp::Context"* %this, %"struct.fp::Context"** %1, align 8
  %2 = load %"struct.fp::Context"** %1
  %3 = getelementptr inbounds %"struct.fp::Context"* %2, i32 0, i32 0
  %4 = load %"struct.fp::Packet"** %3, align 8
  ret %"struct.fp::Packet"* %4
}

; Function Attrs: nounwind uwtable
define linkonce_odr %"struct.fp::Packet"* @_ZN2fp7Context6packetEv(%"struct.fp::Context"* %this) #2 align 2 {
  %1 = alloca %"struct.fp::Context"*, align 8
  store %"struct.fp::Context"* %this, %"struct.fp::Context"** %1, align 8
  %2 = load %"struct.fp::Context"** %1
  %3 = getelementptr inbounds %"struct.fp::Context"* %2, i32 0, i32 0
  %4 = load %"struct.fp::Packet"** %3, align 8
  ret %"struct.fp::Packet"* %4
}

; Function Attrs: nounwind uwtable
define linkonce_odr dereferenceable(8) %"struct.fp::Metadata"* @_ZNK2fp7Context8metadataEv(%"struct.fp::Context"* %this) #2 align 2 {
  %1 = alloca %"struct.fp::Context"*, align 8
  store %"struct.fp::Context"* %this, %"struct.fp::Context"** %1, align 8
  %2 = load %"struct.fp::Context"** %1
  %3 = getelementptr inbounds %"struct.fp::Context"* %2, i32 0, i32 1
  ret %"struct.fp::Metadata"* %3
}

; Function Attrs: nounwind uwtable
define linkonce_odr dereferenceable(8) %"struct.fp::Metadata"* @_ZN2fp7Context8metadataEv(%"struct.fp::Context"* %this) #2 align 2 {
  %1 = alloca %"struct.fp::Context"*, align 8
  store %"struct.fp::Context"* %this, %"struct.fp::Context"** %1, align 8
  %2 = load %"struct.fp::Context"** %1
  %3 = getelementptr inbounds %"struct.fp::Context"* %2, i32 0, i32 1
  ret %"struct.fp::Metadata"* %3
}

; Function Attrs: nounwind uwtable
define linkonce_odr %"struct.fp::Table"* @_ZNK2fp7Context13current_tableEv(%"struct.fp::Context"* %this) #2 align 2 {
  %1 = alloca %"struct.fp::Context"*, align 8
  store %"struct.fp::Context"* %this, %"struct.fp::Context"** %1, align 8
  %2 = load %"struct.fp::Context"** %1
  %3 = getelementptr inbounds %"struct.fp::Context"* %2, i32 0, i32 2
  %4 = getelementptr inbounds %"struct.fp::Context_current"* %3, i32 0, i32 1
  %5 = load %"struct.fp::Table"** %4, align 8
  ret %"struct.fp::Table"* %5
}

; Function Attrs: nounwind uwtable
define linkonce_odr %"struct.fp::Flow"* @_ZNK2fp7Context12current_flowEv(%"struct.fp::Context"* %this) #2 align 2 {
  %1 = alloca %"struct.fp::Context"*, align 8
  store %"struct.fp::Context"* %this, %"struct.fp::Context"** %1, align 8
  %2 = load %"struct.fp::Context"** %1
  %3 = getelementptr inbounds %"struct.fp::Context"* %2, i32 0, i32 2
  %4 = getelementptr inbounds %"struct.fp::Context_current"* %3, i32 0, i32 2
  %5 = load %"struct.fp::Flow"** %4, align 8
  ret %"struct.fp::Flow"* %5
}

; Function Attrs: inlinehint nounwind uwtable
define linkonce_odr i64 @_ZSt3absl(i64 %__i) #0 {
  %1 = alloca i64, align 8
  store i64 %__i, i64* %1, align 8
  %2 = load i64* %1, align 8
  %3 = sub i64 0, %2
  %4 = icmp sge i64 %2, 0
  %5 = select i1 %4, i64 %2, i64 %3
  ret i64 %5
}

; Function Attrs: inlinehint nounwind uwtable
define linkonce_odr { i64, i64 } @_ZSt3divll(i64 %__i, i64 %__j) #0 {
  %1 = alloca %struct.ldiv_t, align 8
  %2 = alloca i64, align 8
  %3 = alloca i64, align 8
  store i64 %__i, i64* %2, align 8
  store i64 %__j, i64* %3, align 8
  %4 = load i64* %2, align 8
  %5 = load i64* %3, align 8
  %6 = call { i64, i64 } @ldiv(i64 %4, i64 %5) #1
  %7 = bitcast %struct.ldiv_t* %1 to { i64, i64 }*
  %8 = getelementptr { i64, i64 }* %7, i32 0, i32 0
  %9 = extractvalue { i64, i64 } %6, 0
  store i64 %9, i64* %8, align 1
  %10 = getelementptr { i64, i64 }* %7, i32 0, i32 1
  %11 = extractvalue { i64, i64 } %6, 1
  store i64 %11, i64* %10, align 1
  %12 = bitcast %struct.ldiv_t* %1 to { i64, i64 }*
  %13 = load { i64, i64 }* %12, align 1
  ret { i64, i64 } %13
}

; Function Attrs: nounwind readnone
declare { i64, i64 } @ldiv(i64, i64) #12

; Function Attrs: inlinehint nounwind uwtable
define linkonce_odr i64 @_ZSt3absx(i64 %__x) #0 {
  %1 = alloca i64, align 8
  store i64 %__x, i64* %1, align 8
  %2 = load i64* %1, align 8
  %3 = sub i64 0, %2
  %4 = icmp sge i64 %2, 0
  %5 = select i1 %4, i64 %2, i64 %3
  ret i64 %5
}

; Function Attrs: inlinehint nounwind uwtable
define linkonce_odr { i64, i64 } @_ZN9__gnu_cxx3divExx(i64 %__n, i64 %__d) #0 {
  %1 = alloca %struct.lldiv_t, align 8
  %2 = alloca i64, align 8
  %3 = alloca i64, align 8
  store i64 %__n, i64* %2, align 8
  store i64 %__d, i64* %3, align 8
  %4 = load i64* %2, align 8
  %5 = load i64* %3, align 8
  %6 = sdiv i64 %4, %5
  %7 = getelementptr inbounds %struct.lldiv_t* %1, i32 0, i32 0
  store i64 %6, i64* %7, align 8
  %8 = load i64* %2, align 8
  %9 = load i64* %3, align 8
  %10 = srem i64 %8, %9
  %11 = getelementptr inbounds %struct.lldiv_t* %1, i32 0, i32 1
  store i64 %10, i64* %11, align 8
  %12 = bitcast %struct.lldiv_t* %1 to { i64, i64 }*
  %13 = load { i64, i64 }* %12, align 1
  ret { i64, i64 } %13
}

; Function Attrs: inlinehint nounwind uwtable
define linkonce_odr double @_ZSt3absd(double %__x) #0 {
  %1 = alloca double, align 8
  store double %__x, double* %1, align 8
  %2 = load double* %1, align 8
  %3 = call double @llvm.fabs.f64(double %2) #19
  ret double %3
}

; Function Attrs: nounwind readnone
declare double @llvm.fabs.f64(double) #1

; Function Attrs: inlinehint nounwind uwtable
define linkonce_odr float @_ZSt3absf(float %__x) #0 {
  %1 = alloca float, align 4
  store float %__x, float* %1, align 4
  %2 = load float* %1, align 4
  %3 = call float @llvm.fabs.f32(float %2) #19
  ret float %3
}

; Function Attrs: nounwind readnone
declare float @llvm.fabs.f32(float) #1

; Function Attrs: inlinehint nounwind uwtable
define linkonce_odr x86_fp80 @_ZSt3abse(x86_fp80 %__x) #0 {
  %1 = alloca x86_fp80, align 16
  store x86_fp80 %__x, x86_fp80* %1, align 16
  %2 = load x86_fp80* %1, align 16
  %3 = call x86_fp80 @llvm.fabs.f80(x86_fp80 %2) #19
  ret x86_fp80 %3
}

; Function Attrs: nounwind readnone
declare x86_fp80 @llvm.fabs.f80(x86_fp80) #1

; Function Attrs: inlinehint nounwind uwtable
define linkonce_odr float @_ZSt4acosf(float %__x) #0 {
  %1 = alloca float, align 4
  store float %__x, float* %1, align 4
  %2 = load float* %1, align 4
  %3 = call float @acosf(float %2) #1
  ret float %3
}

; Function Attrs: nounwind readnone
declare float @acosf(float) #12

; Function Attrs: inlinehint nounwind uwtable
define linkonce_odr x86_fp80 @_ZSt4acose(x86_fp80 %__x) #0 {
  %1 = alloca x86_fp80, align 16
  store x86_fp80 %__x, x86_fp80* %1, align 16
  %2 = load x86_fp80* %1, align 16
  %3 = call x86_fp80 @acosl(x86_fp80 %2) #1
  ret x86_fp80 %3
}

; Function Attrs: nounwind readnone
declare x86_fp80 @acosl(x86_fp80) #12

; Function Attrs: inlinehint nounwind uwtable
define linkonce_odr float @_ZSt4asinf(float %__x) #0 {
  %1 = alloca float, align 4
  store float %__x, float* %1, align 4
  %2 = load float* %1, align 4
  %3 = call float @asinf(float %2) #1
  ret float %3
}

; Function Attrs: nounwind readnone
declare float @asinf(float) #12

; Function Attrs: inlinehint nounwind uwtable
define linkonce_odr x86_fp80 @_ZSt4asine(x86_fp80 %__x) #0 {
  %1 = alloca x86_fp80, align 16
  store x86_fp80 %__x, x86_fp80* %1, align 16
  %2 = load x86_fp80* %1, align 16
  %3 = call x86_fp80 @asinl(x86_fp80 %2) #1
  ret x86_fp80 %3
}

; Function Attrs: nounwind readnone
declare x86_fp80 @asinl(x86_fp80) #12

; Function Attrs: inlinehint nounwind uwtable
define linkonce_odr float @_ZSt4atanf(float %__x) #0 {
  %1 = alloca float, align 4
  store float %__x, float* %1, align 4
  %2 = load float* %1, align 4
  %3 = call float @atanf(float %2) #1
  ret float %3
}

; Function Attrs: nounwind readnone
declare float @atanf(float) #12

; Function Attrs: inlinehint nounwind uwtable
define linkonce_odr x86_fp80 @_ZSt4atane(x86_fp80 %__x) #0 {
  %1 = alloca x86_fp80, align 16
  store x86_fp80 %__x, x86_fp80* %1, align 16
  %2 = load x86_fp80* %1, align 16
  %3 = call x86_fp80 @atanl(x86_fp80 %2) #1
  ret x86_fp80 %3
}

; Function Attrs: nounwind readnone
declare x86_fp80 @atanl(x86_fp80) #12

; Function Attrs: inlinehint nounwind uwtable
define linkonce_odr float @_ZSt5atan2ff(float %__y, float %__x) #0 {
  %1 = alloca float, align 4
  %2 = alloca float, align 4
  store float %__y, float* %1, align 4
  store float %__x, float* %2, align 4
  %3 = load float* %1, align 4
  %4 = load float* %2, align 4
  %5 = call float @atan2f(float %3, float %4) #1
  ret float %5
}

; Function Attrs: nounwind readnone
declare float @atan2f(float, float) #12

; Function Attrs: inlinehint nounwind uwtable
define linkonce_odr x86_fp80 @_ZSt5atan2ee(x86_fp80 %__y, x86_fp80 %__x) #0 {
  %1 = alloca x86_fp80, align 16
  %2 = alloca x86_fp80, align 16
  store x86_fp80 %__y, x86_fp80* %1, align 16
  store x86_fp80 %__x, x86_fp80* %2, align 16
  %3 = load x86_fp80* %1, align 16
  %4 = load x86_fp80* %2, align 16
  %5 = call x86_fp80 @atan2l(x86_fp80 %3, x86_fp80 %4) #1
  ret x86_fp80 %5
}

; Function Attrs: nounwind readnone
declare x86_fp80 @atan2l(x86_fp80, x86_fp80) #12

; Function Attrs: inlinehint nounwind uwtable
define linkonce_odr float @_ZSt4ceilf(float %__x) #0 {
  %1 = alloca float, align 4
  store float %__x, float* %1, align 4
  %2 = load float* %1, align 4
  %3 = call float @ceilf(float %2) #1
  ret float %3
}

; Function Attrs: nounwind readnone
declare float @ceilf(float) #12

; Function Attrs: inlinehint nounwind uwtable
define linkonce_odr x86_fp80 @_ZSt4ceile(x86_fp80 %__x) #0 {
  %1 = alloca x86_fp80, align 16
  store x86_fp80 %__x, x86_fp80* %1, align 16
  %2 = load x86_fp80* %1, align 16
  %3 = call x86_fp80 @ceill(x86_fp80 %2) #1
  ret x86_fp80 %3
}

; Function Attrs: nounwind readnone
declare x86_fp80 @ceill(x86_fp80) #12

; Function Attrs: inlinehint nounwind uwtable
define linkonce_odr float @_ZSt3cosf(float %__x) #0 {
  %1 = alloca float, align 4
  store float %__x, float* %1, align 4
  %2 = load float* %1, align 4
  %3 = call float @cosf(float %2) #1
  ret float %3
}

; Function Attrs: nounwind readnone
declare float @cosf(float) #12

; Function Attrs: inlinehint nounwind uwtable
define linkonce_odr x86_fp80 @_ZSt3cose(x86_fp80 %__x) #0 {
  %1 = alloca x86_fp80, align 16
  store x86_fp80 %__x, x86_fp80* %1, align 16
  %2 = load x86_fp80* %1, align 16
  %3 = call x86_fp80 @cosl(x86_fp80 %2) #1
  ret x86_fp80 %3
}

; Function Attrs: nounwind readnone
declare x86_fp80 @cosl(x86_fp80) #12

; Function Attrs: inlinehint nounwind uwtable
define linkonce_odr float @_ZSt4coshf(float %__x) #0 {
  %1 = alloca float, align 4
  store float %__x, float* %1, align 4
  %2 = load float* %1, align 4
  %3 = call float @coshf(float %2) #1
  ret float %3
}

; Function Attrs: nounwind readnone
declare float @coshf(float) #12

; Function Attrs: inlinehint nounwind uwtable
define linkonce_odr x86_fp80 @_ZSt4coshe(x86_fp80 %__x) #0 {
  %1 = alloca x86_fp80, align 16
  store x86_fp80 %__x, x86_fp80* %1, align 16
  %2 = load x86_fp80* %1, align 16
  %3 = call x86_fp80 @coshl(x86_fp80 %2) #1
  ret x86_fp80 %3
}

; Function Attrs: nounwind readnone
declare x86_fp80 @coshl(x86_fp80) #12

; Function Attrs: inlinehint nounwind uwtable
define linkonce_odr float @_ZSt3expf(float %__x) #0 {
  %1 = alloca float, align 4
  store float %__x, float* %1, align 4
  %2 = load float* %1, align 4
  %3 = call float @expf(float %2) #1
  ret float %3
}

; Function Attrs: nounwind readnone
declare float @expf(float) #12

; Function Attrs: inlinehint nounwind uwtable
define linkonce_odr x86_fp80 @_ZSt3expe(x86_fp80 %__x) #0 {
  %1 = alloca x86_fp80, align 16
  store x86_fp80 %__x, x86_fp80* %1, align 16
  %2 = load x86_fp80* %1, align 16
  %3 = call x86_fp80 @expl(x86_fp80 %2) #1
  ret x86_fp80 %3
}

; Function Attrs: nounwind readnone
declare x86_fp80 @expl(x86_fp80) #12

; Function Attrs: inlinehint nounwind uwtable
define linkonce_odr float @_ZSt4fabsf(float %__x) #0 {
  %1 = alloca float, align 4
  store float %__x, float* %1, align 4
  %2 = load float* %1, align 4
  %3 = call float @llvm.fabs.f32(float %2) #19
  ret float %3
}

; Function Attrs: inlinehint nounwind uwtable
define linkonce_odr x86_fp80 @_ZSt4fabse(x86_fp80 %__x) #0 {
  %1 = alloca x86_fp80, align 16
  store x86_fp80 %__x, x86_fp80* %1, align 16
  %2 = load x86_fp80* %1, align 16
  %3 = call x86_fp80 @llvm.fabs.f80(x86_fp80 %2) #19
  ret x86_fp80 %3
}

; Function Attrs: inlinehint nounwind uwtable
define linkonce_odr float @_ZSt5floorf(float %__x) #0 {
  %1 = alloca float, align 4
  store float %__x, float* %1, align 4
  %2 = load float* %1, align 4
  %3 = call float @floorf(float %2) #1
  ret float %3
}

; Function Attrs: nounwind readnone
declare float @floorf(float) #12

; Function Attrs: inlinehint nounwind uwtable
define linkonce_odr x86_fp80 @_ZSt5floore(x86_fp80 %__x) #0 {
  %1 = alloca x86_fp80, align 16
  store x86_fp80 %__x, x86_fp80* %1, align 16
  %2 = load x86_fp80* %1, align 16
  %3 = call x86_fp80 @floorl(x86_fp80 %2) #1
  ret x86_fp80 %3
}

; Function Attrs: nounwind readnone
declare x86_fp80 @floorl(x86_fp80) #12

; Function Attrs: inlinehint nounwind uwtable
define linkonce_odr float @_ZSt4fmodff(float %__x, float %__y) #0 {
  %1 = alloca float, align 4
  %2 = alloca float, align 4
  store float %__x, float* %1, align 4
  store float %__y, float* %2, align 4
  %3 = load float* %1, align 4
  %4 = load float* %2, align 4
  %5 = frem float %3, %4
  ret float %5
}

; Function Attrs: inlinehint nounwind uwtable
define linkonce_odr x86_fp80 @_ZSt4fmodee(x86_fp80 %__x, x86_fp80 %__y) #0 {
  %1 = alloca x86_fp80, align 16
  %2 = alloca x86_fp80, align 16
  store x86_fp80 %__x, x86_fp80* %1, align 16
  store x86_fp80 %__y, x86_fp80* %2, align 16
  %3 = load x86_fp80* %1, align 16
  %4 = load x86_fp80* %2, align 16
  %5 = frem x86_fp80 %3, %4
  ret x86_fp80 %5
}

; Function Attrs: inlinehint nounwind uwtable
define linkonce_odr float @_ZSt5frexpfPi(float %__x, i32* %__exp) #0 {
  %1 = alloca float, align 4
  %2 = alloca i32*, align 8
  store float %__x, float* %1, align 4
  store i32* %__exp, i32** %2, align 8
  %3 = load float* %1, align 4
  %4 = load i32** %2, align 8
  %5 = call float @frexpf(float %3, i32* %4) #8
  ret float %5
}

; Function Attrs: nounwind
declare float @frexpf(float, i32*) #3

; Function Attrs: inlinehint nounwind uwtable
define linkonce_odr x86_fp80 @_ZSt5frexpePi(x86_fp80 %__x, i32* %__exp) #0 {
  %1 = alloca x86_fp80, align 16
  %2 = alloca i32*, align 8
  store x86_fp80 %__x, x86_fp80* %1, align 16
  store i32* %__exp, i32** %2, align 8
  %3 = load x86_fp80* %1, align 16
  %4 = load i32** %2, align 8
  %5 = call x86_fp80 @frexpl(x86_fp80 %3, i32* %4) #8
  ret x86_fp80 %5
}

; Function Attrs: nounwind
declare x86_fp80 @frexpl(x86_fp80, i32*) #3

; Function Attrs: inlinehint nounwind uwtable
define linkonce_odr float @_ZSt5ldexpfi(float %__x, i32 %__exp) #0 {
  %1 = alloca float, align 4
  %2 = alloca i32, align 4
  store float %__x, float* %1, align 4
  store i32 %__exp, i32* %2, align 4
  %3 = load float* %1, align 4
  %4 = load i32* %2, align 4
  %5 = call float @ldexpf(float %3, i32 %4) #1
  ret float %5
}

; Function Attrs: nounwind readnone
declare float @ldexpf(float, i32) #12

; Function Attrs: inlinehint nounwind uwtable
define linkonce_odr x86_fp80 @_ZSt5ldexpei(x86_fp80 %__x, i32 %__exp) #0 {
  %1 = alloca x86_fp80, align 16
  %2 = alloca i32, align 4
  store x86_fp80 %__x, x86_fp80* %1, align 16
  store i32 %__exp, i32* %2, align 4
  %3 = load x86_fp80* %1, align 16
  %4 = load i32* %2, align 4
  %5 = call x86_fp80 @ldexpl(x86_fp80 %3, i32 %4) #1
  ret x86_fp80 %5
}

; Function Attrs: nounwind readnone
declare x86_fp80 @ldexpl(x86_fp80, i32) #12

; Function Attrs: inlinehint nounwind uwtable
define linkonce_odr float @_ZSt3logf(float %__x) #0 {
  %1 = alloca float, align 4
  store float %__x, float* %1, align 4
  %2 = load float* %1, align 4
  %3 = call float @logf(float %2) #1
  ret float %3
}

; Function Attrs: nounwind readnone
declare float @logf(float) #12

; Function Attrs: inlinehint nounwind uwtable
define linkonce_odr x86_fp80 @_ZSt3loge(x86_fp80 %__x) #0 {
  %1 = alloca x86_fp80, align 16
  store x86_fp80 %__x, x86_fp80* %1, align 16
  %2 = load x86_fp80* %1, align 16
  %3 = call x86_fp80 @logl(x86_fp80 %2) #1
  ret x86_fp80 %3
}

; Function Attrs: nounwind readnone
declare x86_fp80 @logl(x86_fp80) #12

; Function Attrs: inlinehint nounwind uwtable
define linkonce_odr float @_ZSt5log10f(float %__x) #0 {
  %1 = alloca float, align 4
  store float %__x, float* %1, align 4
  %2 = load float* %1, align 4
  %3 = call float @log10f(float %2) #1
  ret float %3
}

; Function Attrs: nounwind readnone
declare float @log10f(float) #12

; Function Attrs: inlinehint nounwind uwtable
define linkonce_odr x86_fp80 @_ZSt5log10e(x86_fp80 %__x) #0 {
  %1 = alloca x86_fp80, align 16
  store x86_fp80 %__x, x86_fp80* %1, align 16
  %2 = load x86_fp80* %1, align 16
  %3 = call x86_fp80 @log10l(x86_fp80 %2) #1
  ret x86_fp80 %3
}

; Function Attrs: nounwind readnone
declare x86_fp80 @log10l(x86_fp80) #12

; Function Attrs: inlinehint nounwind uwtable
define linkonce_odr float @_ZSt4modffPf(float %__x, float* %__iptr) #0 {
  %1 = alloca float, align 4
  %2 = alloca float*, align 8
  store float %__x, float* %1, align 4
  store float* %__iptr, float** %2, align 8
  %3 = load float* %1, align 4
  %4 = load float** %2, align 8
  %5 = call float @modff(float %3, float* %4) #8
  ret float %5
}

; Function Attrs: nounwind
declare float @modff(float, float*) #3

; Function Attrs: inlinehint nounwind uwtable
define linkonce_odr x86_fp80 @_ZSt4modfePe(x86_fp80 %__x, x86_fp80* %__iptr) #0 {
  %1 = alloca x86_fp80, align 16
  %2 = alloca x86_fp80*, align 8
  store x86_fp80 %__x, x86_fp80* %1, align 16
  store x86_fp80* %__iptr, x86_fp80** %2, align 8
  %3 = load x86_fp80* %1, align 16
  %4 = load x86_fp80** %2, align 8
  %5 = call x86_fp80 @modfl(x86_fp80 %3, x86_fp80* %4) #8
  ret x86_fp80 %5
}

; Function Attrs: nounwind
declare x86_fp80 @modfl(x86_fp80, x86_fp80*) #3

; Function Attrs: inlinehint nounwind uwtable
define linkonce_odr float @_ZSt3powff(float %__x, float %__y) #0 {
  %1 = alloca float, align 4
  %2 = alloca float, align 4
  store float %__x, float* %1, align 4
  store float %__y, float* %2, align 4
  %3 = load float* %1, align 4
  %4 = load float* %2, align 4
  %5 = call float @powf(float %3, float %4) #1
  ret float %5
}

; Function Attrs: nounwind readnone
declare float @powf(float, float) #12

; Function Attrs: inlinehint nounwind uwtable
define linkonce_odr x86_fp80 @_ZSt3powee(x86_fp80 %__x, x86_fp80 %__y) #0 {
  %1 = alloca x86_fp80, align 16
  %2 = alloca x86_fp80, align 16
  store x86_fp80 %__x, x86_fp80* %1, align 16
  store x86_fp80 %__y, x86_fp80* %2, align 16
  %3 = load x86_fp80* %1, align 16
  %4 = load x86_fp80* %2, align 16
  %5 = call x86_fp80 @powl(x86_fp80 %3, x86_fp80 %4) #1
  ret x86_fp80 %5
}

; Function Attrs: nounwind readnone
declare x86_fp80 @powl(x86_fp80, x86_fp80) #12

; Function Attrs: inlinehint nounwind uwtable
define linkonce_odr float @_ZSt3sinf(float %__x) #0 {
  %1 = alloca float, align 4
  store float %__x, float* %1, align 4
  %2 = load float* %1, align 4
  %3 = call float @sinf(float %2) #1
  ret float %3
}

; Function Attrs: nounwind readnone
declare float @sinf(float) #12

; Function Attrs: inlinehint nounwind uwtable
define linkonce_odr x86_fp80 @_ZSt3sine(x86_fp80 %__x) #0 {
  %1 = alloca x86_fp80, align 16
  store x86_fp80 %__x, x86_fp80* %1, align 16
  %2 = load x86_fp80* %1, align 16
  %3 = call x86_fp80 @sinl(x86_fp80 %2) #1
  ret x86_fp80 %3
}

; Function Attrs: nounwind readnone
declare x86_fp80 @sinl(x86_fp80) #12

; Function Attrs: inlinehint nounwind uwtable
define linkonce_odr float @_ZSt4sinhf(float %__x) #0 {
  %1 = alloca float, align 4
  store float %__x, float* %1, align 4
  %2 = load float* %1, align 4
  %3 = call float @sinhf(float %2) #1
  ret float %3
}

; Function Attrs: nounwind readnone
declare float @sinhf(float) #12

; Function Attrs: inlinehint nounwind uwtable
define linkonce_odr x86_fp80 @_ZSt4sinhe(x86_fp80 %__x) #0 {
  %1 = alloca x86_fp80, align 16
  store x86_fp80 %__x, x86_fp80* %1, align 16
  %2 = load x86_fp80* %1, align 16
  %3 = call x86_fp80 @sinhl(x86_fp80 %2) #1
  ret x86_fp80 %3
}

; Function Attrs: nounwind readnone
declare x86_fp80 @sinhl(x86_fp80) #12

; Function Attrs: inlinehint nounwind uwtable
define linkonce_odr float @_ZSt4sqrtf(float %__x) #0 {
  %1 = alloca float, align 4
  store float %__x, float* %1, align 4
  %2 = load float* %1, align 4
  %3 = call float @sqrtf(float %2) #1
  ret float %3
}

; Function Attrs: nounwind readnone
declare float @sqrtf(float) #12

; Function Attrs: inlinehint nounwind uwtable
define linkonce_odr x86_fp80 @_ZSt4sqrte(x86_fp80 %__x) #0 {
  %1 = alloca x86_fp80, align 16
  store x86_fp80 %__x, x86_fp80* %1, align 16
  %2 = load x86_fp80* %1, align 16
  %3 = call x86_fp80 @sqrtl(x86_fp80 %2) #1
  ret x86_fp80 %3
}

; Function Attrs: nounwind readnone
declare x86_fp80 @sqrtl(x86_fp80) #12

; Function Attrs: inlinehint nounwind uwtable
define linkonce_odr float @_ZSt3tanf(float %__x) #0 {
  %1 = alloca float, align 4
  store float %__x, float* %1, align 4
  %2 = load float* %1, align 4
  %3 = call float @tanf(float %2) #1
  ret float %3
}

; Function Attrs: nounwind readnone
declare float @tanf(float) #12

; Function Attrs: inlinehint nounwind uwtable
define linkonce_odr x86_fp80 @_ZSt3tane(x86_fp80 %__x) #0 {
  %1 = alloca x86_fp80, align 16
  store x86_fp80 %__x, x86_fp80* %1, align 16
  %2 = load x86_fp80* %1, align 16
  %3 = call x86_fp80 @tanl(x86_fp80 %2) #1
  ret x86_fp80 %3
}

; Function Attrs: nounwind readnone
declare x86_fp80 @tanl(x86_fp80) #12

; Function Attrs: inlinehint nounwind uwtable
define linkonce_odr float @_ZSt4tanhf(float %__x) #0 {
  %1 = alloca float, align 4
  store float %__x, float* %1, align 4
  %2 = load float* %1, align 4
  %3 = call float @tanhf(float %2) #1
  ret float %3
}

; Function Attrs: nounwind readnone
declare float @tanhf(float) #12

; Function Attrs: inlinehint nounwind uwtable
define linkonce_odr x86_fp80 @_ZSt4tanhe(x86_fp80 %__x) #0 {
  %1 = alloca x86_fp80, align 16
  store x86_fp80 %__x, x86_fp80* %1, align 16
  %2 = load x86_fp80* %1, align 16
  %3 = call x86_fp80 @tanhl(x86_fp80 %2) #1
  ret x86_fp80 %3
}

; Function Attrs: nounwind readnone
declare x86_fp80 @tanhl(x86_fp80) #12

; Function Attrs: nounwind uwtable
define linkonce_odr i32 @_ZSt10fpclassifyf(float %__x) #2 {
  %1 = alloca float, align 4
  store float %__x, float* %1, align 4
  %2 = load float* %1, align 4
  %3 = fcmp oeq float %2, 0.000000e+00
  br i1 %3, label %4, label %6

; <label>:4                                       ; preds = %11, %8, %6, %0
  %5 = phi i32 [ 2, %0 ], [ 0, %6 ], [ 1, %8 ], [ %13, %11 ]
  ret i32 %5

; <label>:6                                       ; preds = %0
  %7 = fcmp uno float %2, %2
  br i1 %7, label %4, label %8

; <label>:8                                       ; preds = %6
  %9 = call float @llvm.fabs.f32(float %2) #19
  %10 = fcmp oeq float %9, 0x7FF0000000000000
  br i1 %10, label %4, label %11

; <label>:11                                      ; preds = %8
  %12 = fcmp uge float %9, 0x3810000000000000
  %13 = select i1 %12, i32 4, i32 3
  br label %4
}

; Function Attrs: nounwind uwtable
define linkonce_odr i32 @_ZSt10fpclassifyd(double %__x) #2 {
  %1 = alloca double, align 8
  store double %__x, double* %1, align 8
  %2 = load double* %1, align 8
  %3 = fcmp oeq double %2, 0.000000e+00
  br i1 %3, label %4, label %6

; <label>:4                                       ; preds = %11, %8, %6, %0
  %5 = phi i32 [ 2, %0 ], [ 0, %6 ], [ 1, %8 ], [ %13, %11 ]
  ret i32 %5

; <label>:6                                       ; preds = %0
  %7 = fcmp uno double %2, %2
  br i1 %7, label %4, label %8

; <label>:8                                       ; preds = %6
  %9 = call double @llvm.fabs.f64(double %2) #19
  %10 = fcmp oeq double %9, 0x7FF0000000000000
  br i1 %10, label %4, label %11

; <label>:11                                      ; preds = %8
  %12 = fcmp uge double %9, 0x10000000000000
  %13 = select i1 %12, i32 4, i32 3
  br label %4
}

; Function Attrs: nounwind uwtable
define linkonce_odr i32 @_ZSt10fpclassifye(x86_fp80 %__x) #2 {
  %1 = alloca x86_fp80, align 16
  store x86_fp80 %__x, x86_fp80* %1, align 16
  %2 = load x86_fp80* %1, align 16
  %3 = fcmp oeq x86_fp80 %2, 0xK00000000000000000000
  br i1 %3, label %4, label %6

; <label>:4                                       ; preds = %11, %8, %6, %0
  %5 = phi i32 [ 2, %0 ], [ 0, %6 ], [ 1, %8 ], [ %13, %11 ]
  ret i32 %5

; <label>:6                                       ; preds = %0
  %7 = fcmp uno x86_fp80 %2, %2
  br i1 %7, label %4, label %8

; <label>:8                                       ; preds = %6
  %9 = call x86_fp80 @llvm.fabs.f80(x86_fp80 %2) #19
  %10 = fcmp oeq x86_fp80 %9, 0xK7FFF8000000000000000
  br i1 %10, label %4, label %11

; <label>:11                                      ; preds = %8
  %12 = fcmp uge x86_fp80 %9, 0xK00018000000000000000
  %13 = select i1 %12, i32 4, i32 3
  br label %4
}

; Function Attrs: nounwind uwtable
define linkonce_odr zeroext i1 @_ZSt8isfinitef(float %__x) #2 {
  %1 = alloca float, align 4
  store float %__x, float* %1, align 4
  %2 = load float* %1, align 4
  %3 = fcmp oeq float %2, %2
  %4 = call float @llvm.fabs.f32(float %2) #19
  %5 = fcmp une float %4, 0x7FF0000000000000
  %6 = and i1 %3, %5
  ret i1 %6
}

; Function Attrs: nounwind uwtable
define linkonce_odr zeroext i1 @_ZSt8isfinited(double %__x) #2 {
  %1 = alloca double, align 8
  store double %__x, double* %1, align 8
  %2 = load double* %1, align 8
  %3 = fcmp oeq double %2, %2
  %4 = call double @llvm.fabs.f64(double %2) #19
  %5 = fcmp une double %4, 0x7FF0000000000000
  %6 = and i1 %3, %5
  ret i1 %6
}

; Function Attrs: nounwind uwtable
define linkonce_odr zeroext i1 @_ZSt8isfinitee(x86_fp80 %__x) #2 {
  %1 = alloca x86_fp80, align 16
  store x86_fp80 %__x, x86_fp80* %1, align 16
  %2 = load x86_fp80* %1, align 16
  %3 = fcmp oeq x86_fp80 %2, %2
  %4 = call x86_fp80 @llvm.fabs.f80(x86_fp80 %2) #19
  %5 = fcmp une x86_fp80 %4, 0xK7FFF8000000000000000
  %6 = and i1 %3, %5
  ret i1 %6
}

; Function Attrs: nounwind uwtable
define linkonce_odr zeroext i1 @_ZSt5isinff(float %__x) #2 {
  %1 = alloca float, align 4
  store float %__x, float* %1, align 4
  %2 = load float* %1, align 4
  %3 = call float @llvm.fabs.f32(float %2) #19
  %4 = fcmp oeq float %3, 0x7FF0000000000000
  ret i1 %4
}

; Function Attrs: nounwind uwtable
define linkonce_odr zeroext i1 @_ZSt5isinfd(double %__x) #2 {
  %1 = alloca double, align 8
  store double %__x, double* %1, align 8
  %2 = load double* %1, align 8
  %3 = call double @llvm.fabs.f64(double %2) #19
  %4 = fcmp oeq double %3, 0x7FF0000000000000
  ret i1 %4
}

; Function Attrs: nounwind uwtable
define linkonce_odr zeroext i1 @_ZSt5isinfe(x86_fp80 %__x) #2 {
  %1 = alloca x86_fp80, align 16
  store x86_fp80 %__x, x86_fp80* %1, align 16
  %2 = load x86_fp80* %1, align 16
  %3 = call x86_fp80 @llvm.fabs.f80(x86_fp80 %2) #19
  %4 = fcmp oeq x86_fp80 %3, 0xK7FFF8000000000000000
  ret i1 %4
}

; Function Attrs: nounwind uwtable
define linkonce_odr zeroext i1 @_ZSt5isnanf(float %__x) #2 {
  %1 = alloca float, align 4
  store float %__x, float* %1, align 4
  %2 = load float* %1, align 4
  %3 = fcmp uno float %2, %2
  ret i1 %3
}

; Function Attrs: nounwind uwtable
define linkonce_odr zeroext i1 @_ZSt5isnand(double %__x) #2 {
  %1 = alloca double, align 8
  store double %__x, double* %1, align 8
  %2 = load double* %1, align 8
  %3 = fcmp uno double %2, %2
  ret i1 %3
}

; Function Attrs: nounwind uwtable
define linkonce_odr zeroext i1 @_ZSt5isnane(x86_fp80 %__x) #2 {
  %1 = alloca x86_fp80, align 16
  store x86_fp80 %__x, x86_fp80* %1, align 16
  %2 = load x86_fp80* %1, align 16
  %3 = fcmp uno x86_fp80 %2, %2
  ret i1 %3
}

; Function Attrs: nounwind uwtable
define linkonce_odr zeroext i1 @_ZSt8isnormalf(float %__x) #2 {
  %1 = alloca float, align 4
  store float %__x, float* %1, align 4
  %2 = load float* %1, align 4
  %3 = fcmp oeq float %2, %2
  %4 = call float @llvm.fabs.f32(float %2) #19
  %5 = fcmp ult float %4, 0x7FF0000000000000
  %6 = fcmp uge float %4, 0x3810000000000000
  %7 = and i1 %3, %5
  %8 = and i1 %7, %6
  ret i1 %8
}

; Function Attrs: nounwind uwtable
define linkonce_odr zeroext i1 @_ZSt8isnormald(double %__x) #2 {
  %1 = alloca double, align 8
  store double %__x, double* %1, align 8
  %2 = load double* %1, align 8
  %3 = fcmp oeq double %2, %2
  %4 = call double @llvm.fabs.f64(double %2) #19
  %5 = fcmp ult double %4, 0x7FF0000000000000
  %6 = fcmp uge double %4, 0x10000000000000
  %7 = and i1 %3, %5
  %8 = and i1 %7, %6
  ret i1 %8
}

; Function Attrs: nounwind uwtable
define linkonce_odr zeroext i1 @_ZSt8isnormale(x86_fp80 %__x) #2 {
  %1 = alloca x86_fp80, align 16
  store x86_fp80 %__x, x86_fp80* %1, align 16
  %2 = load x86_fp80* %1, align 16
  %3 = fcmp oeq x86_fp80 %2, %2
  %4 = call x86_fp80 @llvm.fabs.f80(x86_fp80 %2) #19
  %5 = fcmp ult x86_fp80 %4, 0xK7FFF8000000000000000
  %6 = fcmp uge x86_fp80 %4, 0xK00018000000000000000
  %7 = and i1 %3, %5
  %8 = and i1 %7, %6
  ret i1 %8
}

; Function Attrs: nounwind uwtable
define linkonce_odr zeroext i1 @_ZSt7signbitf(float %__x) #2 {
  %1 = alloca float, align 4
  store float %__x, float* %1, align 4
  %2 = load float* %1, align 4
  %3 = bitcast float %2 to i32
  %4 = icmp slt i32 %3, 0
  ret i1 %4
}

; Function Attrs: nounwind uwtable
define linkonce_odr zeroext i1 @_ZSt7signbitd(double %__x) #2 {
  %1 = alloca double, align 8
  store double %__x, double* %1, align 8
  %2 = load double* %1, align 8
  %3 = bitcast double %2 to i64
  %4 = icmp slt i64 %3, 0
  ret i1 %4
}

; Function Attrs: nounwind uwtable
define linkonce_odr zeroext i1 @_ZSt7signbite(x86_fp80 %__x) #2 {
  %1 = alloca x86_fp80, align 16
  store x86_fp80 %__x, x86_fp80* %1, align 16
  %2 = load x86_fp80* %1, align 16
  %3 = bitcast x86_fp80 %2 to i80
  %4 = icmp slt i80 %3, 0
  ret i1 %4
}

; Function Attrs: nounwind uwtable
define linkonce_odr zeroext i1 @_ZSt9isgreaterff(float %__x, float %__y) #2 {
  %1 = alloca float, align 4
  %2 = alloca float, align 4
  store float %__x, float* %1, align 4
  store float %__y, float* %2, align 4
  %3 = load float* %1, align 4
  %4 = fpext float %3 to double
  %5 = load float* %2, align 4
  %6 = fpext float %5 to double
  %7 = fcmp ogt double %4, %6
  ret i1 %7
}

; Function Attrs: nounwind uwtable
define linkonce_odr zeroext i1 @_ZSt9isgreaterdd(double %__x, double %__y) #2 {
  %1 = alloca double, align 8
  %2 = alloca double, align 8
  store double %__x, double* %1, align 8
  store double %__y, double* %2, align 8
  %3 = load double* %1, align 8
  %4 = load double* %2, align 8
  %5 = fcmp ogt double %3, %4
  ret i1 %5
}

; Function Attrs: nounwind uwtable
define linkonce_odr zeroext i1 @_ZSt9isgreateree(x86_fp80 %__x, x86_fp80 %__y) #2 {
  %1 = alloca x86_fp80, align 16
  %2 = alloca x86_fp80, align 16
  store x86_fp80 %__x, x86_fp80* %1, align 16
  store x86_fp80 %__y, x86_fp80* %2, align 16
  %3 = load x86_fp80* %1, align 16
  %4 = load x86_fp80* %2, align 16
  %5 = fcmp ogt x86_fp80 %3, %4
  ret i1 %5
}

; Function Attrs: nounwind uwtable
define linkonce_odr zeroext i1 @_ZSt14isgreaterequalff(float %__x, float %__y) #2 {
  %1 = alloca float, align 4
  %2 = alloca float, align 4
  store float %__x, float* %1, align 4
  store float %__y, float* %2, align 4
  %3 = load float* %1, align 4
  %4 = fpext float %3 to double
  %5 = load float* %2, align 4
  %6 = fpext float %5 to double
  %7 = fcmp oge double %4, %6
  ret i1 %7
}

; Function Attrs: nounwind uwtable
define linkonce_odr zeroext i1 @_ZSt14isgreaterequaldd(double %__x, double %__y) #2 {
  %1 = alloca double, align 8
  %2 = alloca double, align 8
  store double %__x, double* %1, align 8
  store double %__y, double* %2, align 8
  %3 = load double* %1, align 8
  %4 = load double* %2, align 8
  %5 = fcmp oge double %3, %4
  ret i1 %5
}

; Function Attrs: nounwind uwtable
define linkonce_odr zeroext i1 @_ZSt14isgreaterequalee(x86_fp80 %__x, x86_fp80 %__y) #2 {
  %1 = alloca x86_fp80, align 16
  %2 = alloca x86_fp80, align 16
  store x86_fp80 %__x, x86_fp80* %1, align 16
  store x86_fp80 %__y, x86_fp80* %2, align 16
  %3 = load x86_fp80* %1, align 16
  %4 = load x86_fp80* %2, align 16
  %5 = fcmp oge x86_fp80 %3, %4
  ret i1 %5
}

; Function Attrs: nounwind uwtable
define linkonce_odr zeroext i1 @_ZSt6islessff(float %__x, float %__y) #2 {
  %1 = alloca float, align 4
  %2 = alloca float, align 4
  store float %__x, float* %1, align 4
  store float %__y, float* %2, align 4
  %3 = load float* %1, align 4
  %4 = fpext float %3 to double
  %5 = load float* %2, align 4
  %6 = fpext float %5 to double
  %7 = fcmp olt double %4, %6
  ret i1 %7
}

; Function Attrs: nounwind uwtable
define linkonce_odr zeroext i1 @_ZSt6islessdd(double %__x, double %__y) #2 {
  %1 = alloca double, align 8
  %2 = alloca double, align 8
  store double %__x, double* %1, align 8
  store double %__y, double* %2, align 8
  %3 = load double* %1, align 8
  %4 = load double* %2, align 8
  %5 = fcmp olt double %3, %4
  ret i1 %5
}

; Function Attrs: nounwind uwtable
define linkonce_odr zeroext i1 @_ZSt6islessee(x86_fp80 %__x, x86_fp80 %__y) #2 {
  %1 = alloca x86_fp80, align 16
  %2 = alloca x86_fp80, align 16
  store x86_fp80 %__x, x86_fp80* %1, align 16
  store x86_fp80 %__y, x86_fp80* %2, align 16
  %3 = load x86_fp80* %1, align 16
  %4 = load x86_fp80* %2, align 16
  %5 = fcmp olt x86_fp80 %3, %4
  ret i1 %5
}

; Function Attrs: nounwind uwtable
define linkonce_odr zeroext i1 @_ZSt11islessequalff(float %__x, float %__y) #2 {
  %1 = alloca float, align 4
  %2 = alloca float, align 4
  store float %__x, float* %1, align 4
  store float %__y, float* %2, align 4
  %3 = load float* %1, align 4
  %4 = fpext float %3 to double
  %5 = load float* %2, align 4
  %6 = fpext float %5 to double
  %7 = fcmp ole double %4, %6
  ret i1 %7
}

; Function Attrs: nounwind uwtable
define linkonce_odr zeroext i1 @_ZSt11islessequaldd(double %__x, double %__y) #2 {
  %1 = alloca double, align 8
  %2 = alloca double, align 8
  store double %__x, double* %1, align 8
  store double %__y, double* %2, align 8
  %3 = load double* %1, align 8
  %4 = load double* %2, align 8
  %5 = fcmp ole double %3, %4
  ret i1 %5
}

; Function Attrs: nounwind uwtable
define linkonce_odr zeroext i1 @_ZSt11islessequalee(x86_fp80 %__x, x86_fp80 %__y) #2 {
  %1 = alloca x86_fp80, align 16
  %2 = alloca x86_fp80, align 16
  store x86_fp80 %__x, x86_fp80* %1, align 16
  store x86_fp80 %__y, x86_fp80* %2, align 16
  %3 = load x86_fp80* %1, align 16
  %4 = load x86_fp80* %2, align 16
  %5 = fcmp ole x86_fp80 %3, %4
  ret i1 %5
}

; Function Attrs: nounwind uwtable
define linkonce_odr zeroext i1 @_ZSt13islessgreaterff(float %__x, float %__y) #2 {
  %1 = alloca float, align 4
  %2 = alloca float, align 4
  store float %__x, float* %1, align 4
  store float %__y, float* %2, align 4
  %3 = load float* %1, align 4
  %4 = fpext float %3 to double
  %5 = load float* %2, align 4
  %6 = fpext float %5 to double
  %7 = fcmp one double %4, %6
  ret i1 %7
}

; Function Attrs: nounwind uwtable
define linkonce_odr zeroext i1 @_ZSt13islessgreaterdd(double %__x, double %__y) #2 {
  %1 = alloca double, align 8
  %2 = alloca double, align 8
  store double %__x, double* %1, align 8
  store double %__y, double* %2, align 8
  %3 = load double* %1, align 8
  %4 = load double* %2, align 8
  %5 = fcmp one double %3, %4
  ret i1 %5
}

; Function Attrs: nounwind uwtable
define linkonce_odr zeroext i1 @_ZSt13islessgreateree(x86_fp80 %__x, x86_fp80 %__y) #2 {
  %1 = alloca x86_fp80, align 16
  %2 = alloca x86_fp80, align 16
  store x86_fp80 %__x, x86_fp80* %1, align 16
  store x86_fp80 %__y, x86_fp80* %2, align 16
  %3 = load x86_fp80* %1, align 16
  %4 = load x86_fp80* %2, align 16
  %5 = fcmp one x86_fp80 %3, %4
  ret i1 %5
}

; Function Attrs: nounwind uwtable
define linkonce_odr zeroext i1 @_ZSt11isunorderedff(float %__x, float %__y) #2 {
  %1 = alloca float, align 4
  %2 = alloca float, align 4
  store float %__x, float* %1, align 4
  store float %__y, float* %2, align 4
  %3 = load float* %1, align 4
  %4 = fpext float %3 to double
  %5 = load float* %2, align 4
  %6 = fpext float %5 to double
  %7 = fcmp uno double %4, %6
  ret i1 %7
}

; Function Attrs: nounwind uwtable
define linkonce_odr zeroext i1 @_ZSt11isunordereddd(double %__x, double %__y) #2 {
  %1 = alloca double, align 8
  %2 = alloca double, align 8
  store double %__x, double* %1, align 8
  store double %__y, double* %2, align 8
  %3 = load double* %1, align 8
  %4 = load double* %2, align 8
  %5 = fcmp uno double %3, %4
  ret i1 %5
}

; Function Attrs: nounwind uwtable
define linkonce_odr zeroext i1 @_ZSt11isunorderedee(x86_fp80 %__x, x86_fp80 %__y) #2 {
  %1 = alloca x86_fp80, align 16
  %2 = alloca x86_fp80, align 16
  store x86_fp80 %__x, x86_fp80* %1, align 16
  store x86_fp80 %__y, x86_fp80* %2, align 16
  %3 = load x86_fp80* %1, align 16
  %4 = load x86_fp80* %2, align 16
  %5 = fcmp uno x86_fp80 %3, %4
  ret i1 %5
}

; Function Attrs: nounwind uwtable
define linkonce_odr float @_ZSt5acoshf(float %__x) #2 {
  %1 = alloca float, align 4
  store float %__x, float* %1, align 4
  %2 = load float* %1, align 4
  %3 = call float @acoshf(float %2) #1
  ret float %3
}

; Function Attrs: nounwind readnone
declare float @acoshf(float) #12

; Function Attrs: nounwind uwtable
define linkonce_odr x86_fp80 @_ZSt5acoshe(x86_fp80 %__x) #2 {
  %1 = alloca x86_fp80, align 16
  store x86_fp80 %__x, x86_fp80* %1, align 16
  %2 = load x86_fp80* %1, align 16
  %3 = call x86_fp80 @acoshl(x86_fp80 %2) #1
  ret x86_fp80 %3
}

; Function Attrs: nounwind readnone
declare x86_fp80 @acoshl(x86_fp80) #12

; Function Attrs: nounwind uwtable
define linkonce_odr float @_ZSt5asinhf(float %__x) #2 {
  %1 = alloca float, align 4
  store float %__x, float* %1, align 4
  %2 = load float* %1, align 4
  %3 = call float @asinhf(float %2) #1
  ret float %3
}

; Function Attrs: nounwind readnone
declare float @asinhf(float) #12

; Function Attrs: nounwind uwtable
define linkonce_odr x86_fp80 @_ZSt5asinhe(x86_fp80 %__x) #2 {
  %1 = alloca x86_fp80, align 16
  store x86_fp80 %__x, x86_fp80* %1, align 16
  %2 = load x86_fp80* %1, align 16
  %3 = call x86_fp80 @asinhl(x86_fp80 %2) #1
  ret x86_fp80 %3
}

; Function Attrs: nounwind readnone
declare x86_fp80 @asinhl(x86_fp80) #12

; Function Attrs: nounwind uwtable
define linkonce_odr float @_ZSt5atanhf(float %__x) #2 {
  %1 = alloca float, align 4
  store float %__x, float* %1, align 4
  %2 = load float* %1, align 4
  %3 = call float @atanhf(float %2) #1
  ret float %3
}

; Function Attrs: nounwind readnone
declare float @atanhf(float) #12

; Function Attrs: nounwind uwtable
define linkonce_odr x86_fp80 @_ZSt5atanhe(x86_fp80 %__x) #2 {
  %1 = alloca x86_fp80, align 16
  store x86_fp80 %__x, x86_fp80* %1, align 16
  %2 = load x86_fp80* %1, align 16
  %3 = call x86_fp80 @atanhl(x86_fp80 %2) #1
  ret x86_fp80 %3
}

; Function Attrs: nounwind readnone
declare x86_fp80 @atanhl(x86_fp80) #12

; Function Attrs: nounwind uwtable
define linkonce_odr float @_ZSt4cbrtf(float %__x) #2 {
  %1 = alloca float, align 4
  store float %__x, float* %1, align 4
  %2 = load float* %1, align 4
  %3 = call float @cbrtf(float %2) #1
  ret float %3
}

; Function Attrs: nounwind readnone
declare float @cbrtf(float) #12

; Function Attrs: nounwind uwtable
define linkonce_odr x86_fp80 @_ZSt4cbrte(x86_fp80 %__x) #2 {
  %1 = alloca x86_fp80, align 16
  store x86_fp80 %__x, x86_fp80* %1, align 16
  %2 = load x86_fp80* %1, align 16
  %3 = call x86_fp80 @cbrtl(x86_fp80 %2) #1
  ret x86_fp80 %3
}

; Function Attrs: nounwind readnone
declare x86_fp80 @cbrtl(x86_fp80) #12

; Function Attrs: nounwind uwtable
define linkonce_odr float @_ZSt8copysignff(float %__x, float %__y) #2 {
  %1 = alloca float, align 4
  %2 = alloca float, align 4
  store float %__x, float* %1, align 4
  store float %__y, float* %2, align 4
  %3 = load float* %1, align 4
  %4 = load float* %2, align 4
  %5 = call float @copysignf(float %3, float %4) #1
  ret float %5
}

; Function Attrs: nounwind readnone
declare float @copysignf(float, float) #12

; Function Attrs: nounwind uwtable
define linkonce_odr x86_fp80 @_ZSt8copysignee(x86_fp80 %__x, x86_fp80 %__y) #2 {
  %1 = alloca x86_fp80, align 16
  %2 = alloca x86_fp80, align 16
  store x86_fp80 %__x, x86_fp80* %1, align 16
  store x86_fp80 %__y, x86_fp80* %2, align 16
  %3 = load x86_fp80* %1, align 16
  %4 = load x86_fp80* %2, align 16
  %5 = call x86_fp80 @copysignl(x86_fp80 %3, x86_fp80 %4) #1
  ret x86_fp80 %5
}

; Function Attrs: nounwind readnone
declare x86_fp80 @copysignl(x86_fp80, x86_fp80) #12

; Function Attrs: nounwind uwtable
define linkonce_odr float @_ZSt3erff(float %__x) #2 {
  %1 = alloca float, align 4
  store float %__x, float* %1, align 4
  %2 = load float* %1, align 4
  %3 = call float @erff(float %2) #1
  ret float %3
}

; Function Attrs: nounwind readnone
declare float @erff(float) #12

; Function Attrs: nounwind uwtable
define linkonce_odr x86_fp80 @_ZSt3erfe(x86_fp80 %__x) #2 {
  %1 = alloca x86_fp80, align 16
  store x86_fp80 %__x, x86_fp80* %1, align 16
  %2 = load x86_fp80* %1, align 16
  %3 = call x86_fp80 @erfl(x86_fp80 %2) #1
  ret x86_fp80 %3
}

; Function Attrs: nounwind readnone
declare x86_fp80 @erfl(x86_fp80) #12

; Function Attrs: nounwind uwtable
define linkonce_odr float @_ZSt4erfcf(float %__x) #2 {
  %1 = alloca float, align 4
  store float %__x, float* %1, align 4
  %2 = load float* %1, align 4
  %3 = call float @erfcf(float %2) #1
  ret float %3
}

; Function Attrs: nounwind readnone
declare float @erfcf(float) #12

; Function Attrs: nounwind uwtable
define linkonce_odr x86_fp80 @_ZSt4erfce(x86_fp80 %__x) #2 {
  %1 = alloca x86_fp80, align 16
  store x86_fp80 %__x, x86_fp80* %1, align 16
  %2 = load x86_fp80* %1, align 16
  %3 = call x86_fp80 @erfcl(x86_fp80 %2) #1
  ret x86_fp80 %3
}

; Function Attrs: nounwind readnone
declare x86_fp80 @erfcl(x86_fp80) #12

; Function Attrs: nounwind uwtable
define linkonce_odr float @_ZSt4exp2f(float %__x) #2 {
  %1 = alloca float, align 4
  store float %__x, float* %1, align 4
  %2 = load float* %1, align 4
  %3 = call float @exp2f(float %2) #1
  ret float %3
}

; Function Attrs: nounwind readnone
declare float @exp2f(float) #12

; Function Attrs: nounwind uwtable
define linkonce_odr x86_fp80 @_ZSt4exp2e(x86_fp80 %__x) #2 {
  %1 = alloca x86_fp80, align 16
  store x86_fp80 %__x, x86_fp80* %1, align 16
  %2 = load x86_fp80* %1, align 16
  %3 = call x86_fp80 @exp2l(x86_fp80 %2) #1
  ret x86_fp80 %3
}

; Function Attrs: nounwind readnone
declare x86_fp80 @exp2l(x86_fp80) #12

; Function Attrs: nounwind uwtable
define linkonce_odr float @_ZSt5expm1f(float %__x) #2 {
  %1 = alloca float, align 4
  store float %__x, float* %1, align 4
  %2 = load float* %1, align 4
  %3 = call float @expm1f(float %2) #1
  ret float %3
}

; Function Attrs: nounwind readnone
declare float @expm1f(float) #12

; Function Attrs: nounwind uwtable
define linkonce_odr x86_fp80 @_ZSt5expm1e(x86_fp80 %__x) #2 {
  %1 = alloca x86_fp80, align 16
  store x86_fp80 %__x, x86_fp80* %1, align 16
  %2 = load x86_fp80* %1, align 16
  %3 = call x86_fp80 @expm1l(x86_fp80 %2) #1
  ret x86_fp80 %3
}

; Function Attrs: nounwind readnone
declare x86_fp80 @expm1l(x86_fp80) #12

; Function Attrs: nounwind uwtable
define linkonce_odr float @_ZSt4fdimff(float %__x, float %__y) #2 {
  %1 = alloca float, align 4
  %2 = alloca float, align 4
  store float %__x, float* %1, align 4
  store float %__y, float* %2, align 4
  %3 = load float* %1, align 4
  %4 = load float* %2, align 4
  %5 = call float @fdimf(float %3, float %4) #1
  ret float %5
}

; Function Attrs: nounwind readnone
declare float @fdimf(float, float) #12

; Function Attrs: nounwind uwtable
define linkonce_odr x86_fp80 @_ZSt4fdimee(x86_fp80 %__x, x86_fp80 %__y) #2 {
  %1 = alloca x86_fp80, align 16
  %2 = alloca x86_fp80, align 16
  store x86_fp80 %__x, x86_fp80* %1, align 16
  store x86_fp80 %__y, x86_fp80* %2, align 16
  %3 = load x86_fp80* %1, align 16
  %4 = load x86_fp80* %2, align 16
  %5 = call x86_fp80 @fdiml(x86_fp80 %3, x86_fp80 %4) #1
  ret x86_fp80 %5
}

; Function Attrs: nounwind readnone
declare x86_fp80 @fdiml(x86_fp80, x86_fp80) #12

; Function Attrs: nounwind uwtable
define linkonce_odr float @_ZSt3fmafff(float %__x, float %__y, float %__z) #2 {
  %1 = alloca float, align 4
  %2 = alloca float, align 4
  %3 = alloca float, align 4
  store float %__x, float* %1, align 4
  store float %__y, float* %2, align 4
  store float %__z, float* %3, align 4
  %4 = load float* %1, align 4
  %5 = load float* %3, align 4
  %6 = load float* %2, align 4
  %7 = call float @llvm.fma.f32(float %4, float %6, float %5)
  ret float %7
}

; Function Attrs: nounwind readnone
declare float @llvm.fma.f32(float, float, float) #1

; Function Attrs: nounwind uwtable
define linkonce_odr x86_fp80 @_ZSt3fmaeee(x86_fp80 %__x, x86_fp80 %__y, x86_fp80 %__z) #2 {
  %1 = alloca x86_fp80, align 16
  %2 = alloca x86_fp80, align 16
  %3 = alloca x86_fp80, align 16
  store x86_fp80 %__x, x86_fp80* %1, align 16
  store x86_fp80 %__y, x86_fp80* %2, align 16
  store x86_fp80 %__z, x86_fp80* %3, align 16
  %4 = load x86_fp80* %1, align 16
  %5 = load x86_fp80* %3, align 16
  %6 = load x86_fp80* %2, align 16
  %7 = call x86_fp80 @llvm.fma.f80(x86_fp80 %4, x86_fp80 %6, x86_fp80 %5)
  ret x86_fp80 %7
}

; Function Attrs: nounwind readnone
declare x86_fp80 @llvm.fma.f80(x86_fp80, x86_fp80, x86_fp80) #1

; Function Attrs: nounwind uwtable
define linkonce_odr float @_ZSt4fmaxff(float %__x, float %__y) #2 {
  %1 = alloca float, align 4
  %2 = alloca float, align 4
  store float %__x, float* %1, align 4
  store float %__y, float* %2, align 4
  %3 = load float* %1, align 4
  %4 = load float* %2, align 4
  %5 = call float @fmaxf(float %3, float %4) #1
  ret float %5
}

; Function Attrs: nounwind readnone
declare float @fmaxf(float, float) #12

; Function Attrs: nounwind uwtable
define linkonce_odr x86_fp80 @_ZSt4fmaxee(x86_fp80 %__x, x86_fp80 %__y) #2 {
  %1 = alloca x86_fp80, align 16
  %2 = alloca x86_fp80, align 16
  store x86_fp80 %__x, x86_fp80* %1, align 16
  store x86_fp80 %__y, x86_fp80* %2, align 16
  %3 = load x86_fp80* %1, align 16
  %4 = load x86_fp80* %2, align 16
  %5 = call x86_fp80 @fmaxl(x86_fp80 %3, x86_fp80 %4) #1
  ret x86_fp80 %5
}

; Function Attrs: nounwind readnone
declare x86_fp80 @fmaxl(x86_fp80, x86_fp80) #12

; Function Attrs: nounwind uwtable
define linkonce_odr float @_ZSt4fminff(float %__x, float %__y) #2 {
  %1 = alloca float, align 4
  %2 = alloca float, align 4
  store float %__x, float* %1, align 4
  store float %__y, float* %2, align 4
  %3 = load float* %1, align 4
  %4 = load float* %2, align 4
  %5 = call float @fminf(float %3, float %4) #1
  ret float %5
}

; Function Attrs: nounwind readnone
declare float @fminf(float, float) #12

; Function Attrs: nounwind uwtable
define linkonce_odr x86_fp80 @_ZSt4fminee(x86_fp80 %__x, x86_fp80 %__y) #2 {
  %1 = alloca x86_fp80, align 16
  %2 = alloca x86_fp80, align 16
  store x86_fp80 %__x, x86_fp80* %1, align 16
  store x86_fp80 %__y, x86_fp80* %2, align 16
  %3 = load x86_fp80* %1, align 16
  %4 = load x86_fp80* %2, align 16
  %5 = call x86_fp80 @fminl(x86_fp80 %3, x86_fp80 %4) #1
  ret x86_fp80 %5
}

; Function Attrs: nounwind readnone
declare x86_fp80 @fminl(x86_fp80, x86_fp80) #12

; Function Attrs: nounwind uwtable
define linkonce_odr float @_ZSt5hypotff(float %__x, float %__y) #2 {
  %1 = alloca float, align 4
  %2 = alloca float, align 4
  store float %__x, float* %1, align 4
  store float %__y, float* %2, align 4
  %3 = load float* %1, align 4
  %4 = load float* %2, align 4
  %5 = call float @hypotf(float %3, float %4) #1
  ret float %5
}

; Function Attrs: nounwind readnone
declare float @hypotf(float, float) #12

; Function Attrs: nounwind uwtable
define linkonce_odr x86_fp80 @_ZSt5hypotee(x86_fp80 %__x, x86_fp80 %__y) #2 {
  %1 = alloca x86_fp80, align 16
  %2 = alloca x86_fp80, align 16
  store x86_fp80 %__x, x86_fp80* %1, align 16
  store x86_fp80 %__y, x86_fp80* %2, align 16
  %3 = load x86_fp80* %1, align 16
  %4 = load x86_fp80* %2, align 16
  %5 = call x86_fp80 @hypotl(x86_fp80 %3, x86_fp80 %4) #1
  ret x86_fp80 %5
}

; Function Attrs: nounwind readnone
declare x86_fp80 @hypotl(x86_fp80, x86_fp80) #12

; Function Attrs: nounwind uwtable
define linkonce_odr i32 @_ZSt5ilogbf(float %__x) #2 {
  %1 = alloca float, align 4
  store float %__x, float* %1, align 4
  %2 = load float* %1, align 4
  %3 = call i32 @ilogbf(float %2) #1
  ret i32 %3
}

; Function Attrs: nounwind readnone
declare i32 @ilogbf(float) #12

; Function Attrs: nounwind uwtable
define linkonce_odr i32 @_ZSt5ilogbe(x86_fp80 %__x) #2 {
  %1 = alloca x86_fp80, align 16
  store x86_fp80 %__x, x86_fp80* %1, align 16
  %2 = load x86_fp80* %1, align 16
  %3 = call i32 @ilogbl(x86_fp80 %2) #1
  ret i32 %3
}

; Function Attrs: nounwind readnone
declare i32 @ilogbl(x86_fp80) #12

; Function Attrs: nounwind uwtable
define linkonce_odr float @_ZSt6lgammaf(float %__x) #2 {
  %1 = alloca float, align 4
  store float %__x, float* %1, align 4
  %2 = load float* %1, align 4
  %3 = call float @lgammaf(float %2) #1
  ret float %3
}

; Function Attrs: nounwind readnone
declare float @lgammaf(float) #12

; Function Attrs: nounwind uwtable
define linkonce_odr x86_fp80 @_ZSt6lgammae(x86_fp80 %__x) #2 {
  %1 = alloca x86_fp80, align 16
  store x86_fp80 %__x, x86_fp80* %1, align 16
  %2 = load x86_fp80* %1, align 16
  %3 = call x86_fp80 @lgammal(x86_fp80 %2) #1
  ret x86_fp80 %3
}

; Function Attrs: nounwind readnone
declare x86_fp80 @lgammal(x86_fp80) #12

; Function Attrs: nounwind uwtable
define linkonce_odr i64 @_ZSt6llrintf(float %__x) #2 {
  %1 = alloca float, align 4
  store float %__x, float* %1, align 4
  %2 = load float* %1, align 4
  %3 = call i64 @llrintf(float %2) #1
  ret i64 %3
}

; Function Attrs: nounwind readnone
declare i64 @llrintf(float) #12

; Function Attrs: nounwind uwtable
define linkonce_odr i64 @_ZSt6llrinte(x86_fp80 %__x) #2 {
  %1 = alloca x86_fp80, align 16
  store x86_fp80 %__x, x86_fp80* %1, align 16
  %2 = load x86_fp80* %1, align 16
  %3 = call i64 @llrintl(x86_fp80 %2) #1
  ret i64 %3
}

; Function Attrs: nounwind readnone
declare i64 @llrintl(x86_fp80) #12

; Function Attrs: nounwind uwtable
define linkonce_odr i64 @_ZSt7llroundf(float %__x) #2 {
  %1 = alloca float, align 4
  store float %__x, float* %1, align 4
  %2 = load float* %1, align 4
  %3 = call i64 @llroundf(float %2) #1
  ret i64 %3
}

; Function Attrs: nounwind readnone
declare i64 @llroundf(float) #12

; Function Attrs: nounwind uwtable
define linkonce_odr i64 @_ZSt7llrounde(x86_fp80 %__x) #2 {
  %1 = alloca x86_fp80, align 16
  store x86_fp80 %__x, x86_fp80* %1, align 16
  %2 = load x86_fp80* %1, align 16
  %3 = call i64 @llroundl(x86_fp80 %2) #1
  ret i64 %3
}

; Function Attrs: nounwind readnone
declare i64 @llroundl(x86_fp80) #12

; Function Attrs: nounwind uwtable
define linkonce_odr float @_ZSt5log1pf(float %__x) #2 {
  %1 = alloca float, align 4
  store float %__x, float* %1, align 4
  %2 = load float* %1, align 4
  %3 = call float @log1pf(float %2) #1
  ret float %3
}

; Function Attrs: nounwind readnone
declare float @log1pf(float) #12

; Function Attrs: nounwind uwtable
define linkonce_odr x86_fp80 @_ZSt5log1pe(x86_fp80 %__x) #2 {
  %1 = alloca x86_fp80, align 16
  store x86_fp80 %__x, x86_fp80* %1, align 16
  %2 = load x86_fp80* %1, align 16
  %3 = call x86_fp80 @log1pl(x86_fp80 %2) #1
  ret x86_fp80 %3
}

; Function Attrs: nounwind readnone
declare x86_fp80 @log1pl(x86_fp80) #12

; Function Attrs: nounwind uwtable
define linkonce_odr float @_ZSt4log2f(float %__x) #2 {
  %1 = alloca float, align 4
  store float %__x, float* %1, align 4
  %2 = load float* %1, align 4
  %3 = call float @log2f(float %2) #1
  ret float %3
}

; Function Attrs: nounwind readnone
declare float @log2f(float) #12

; Function Attrs: nounwind uwtable
define linkonce_odr x86_fp80 @_ZSt4log2e(x86_fp80 %__x) #2 {
  %1 = alloca x86_fp80, align 16
  store x86_fp80 %__x, x86_fp80* %1, align 16
  %2 = load x86_fp80* %1, align 16
  %3 = call x86_fp80 @log2l(x86_fp80 %2) #1
  ret x86_fp80 %3
}

; Function Attrs: nounwind readnone
declare x86_fp80 @log2l(x86_fp80) #12

; Function Attrs: nounwind uwtable
define linkonce_odr float @_ZSt4logbf(float %__x) #2 {
  %1 = alloca float, align 4
  store float %__x, float* %1, align 4
  %2 = load float* %1, align 4
  %3 = call float @logbf(float %2) #1
  ret float %3
}

; Function Attrs: nounwind readnone
declare float @logbf(float) #12

; Function Attrs: nounwind uwtable
define linkonce_odr x86_fp80 @_ZSt4logbe(x86_fp80 %__x) #2 {
  %1 = alloca x86_fp80, align 16
  store x86_fp80 %__x, x86_fp80* %1, align 16
  %2 = load x86_fp80* %1, align 16
  %3 = call x86_fp80 @logbl(x86_fp80 %2) #1
  ret x86_fp80 %3
}

; Function Attrs: nounwind readnone
declare x86_fp80 @logbl(x86_fp80) #12

; Function Attrs: nounwind uwtable
define linkonce_odr i64 @_ZSt5lrintf(float %__x) #2 {
  %1 = alloca float, align 4
  store float %__x, float* %1, align 4
  %2 = load float* %1, align 4
  %3 = call i64 @lrintf(float %2) #1
  ret i64 %3
}

; Function Attrs: nounwind readnone
declare i64 @lrintf(float) #12

; Function Attrs: nounwind uwtable
define linkonce_odr i64 @_ZSt5lrinte(x86_fp80 %__x) #2 {
  %1 = alloca x86_fp80, align 16
  store x86_fp80 %__x, x86_fp80* %1, align 16
  %2 = load x86_fp80* %1, align 16
  %3 = call i64 @lrintl(x86_fp80 %2) #1
  ret i64 %3
}

; Function Attrs: nounwind readnone
declare i64 @lrintl(x86_fp80) #12

; Function Attrs: nounwind uwtable
define linkonce_odr i64 @_ZSt6lroundf(float %__x) #2 {
  %1 = alloca float, align 4
  store float %__x, float* %1, align 4
  %2 = load float* %1, align 4
  %3 = call i64 @lroundf(float %2) #1
  ret i64 %3
}

; Function Attrs: nounwind readnone
declare i64 @lroundf(float) #12

; Function Attrs: nounwind uwtable
define linkonce_odr i64 @_ZSt6lrounde(x86_fp80 %__x) #2 {
  %1 = alloca x86_fp80, align 16
  store x86_fp80 %__x, x86_fp80* %1, align 16
  %2 = load x86_fp80* %1, align 16
  %3 = call i64 @lroundl(x86_fp80 %2) #1
  ret i64 %3
}

; Function Attrs: nounwind readnone
declare i64 @lroundl(x86_fp80) #12

; Function Attrs: nounwind uwtable
define linkonce_odr float @_ZSt9nearbyintf(float %__x) #2 {
  %1 = alloca float, align 4
  store float %__x, float* %1, align 4
  %2 = load float* %1, align 4
  %3 = call float @nearbyintf(float %2) #1
  ret float %3
}

; Function Attrs: nounwind readnone
declare float @nearbyintf(float) #12

; Function Attrs: nounwind uwtable
define linkonce_odr x86_fp80 @_ZSt9nearbyinte(x86_fp80 %__x) #2 {
  %1 = alloca x86_fp80, align 16
  store x86_fp80 %__x, x86_fp80* %1, align 16
  %2 = load x86_fp80* %1, align 16
  %3 = call x86_fp80 @nearbyintl(x86_fp80 %2) #1
  ret x86_fp80 %3
}

; Function Attrs: nounwind readnone
declare x86_fp80 @nearbyintl(x86_fp80) #12

; Function Attrs: nounwind uwtable
define linkonce_odr float @_ZSt9nextafterff(float %__x, float %__y) #2 {
  %1 = alloca float, align 4
  %2 = alloca float, align 4
  store float %__x, float* %1, align 4
  store float %__y, float* %2, align 4
  %3 = load float* %1, align 4
  %4 = load float* %2, align 4
  %5 = call float @nextafterf(float %3, float %4) #1
  ret float %5
}

; Function Attrs: nounwind readnone
declare float @nextafterf(float, float) #12

; Function Attrs: nounwind uwtable
define linkonce_odr x86_fp80 @_ZSt9nextafteree(x86_fp80 %__x, x86_fp80 %__y) #2 {
  %1 = alloca x86_fp80, align 16
  %2 = alloca x86_fp80, align 16
  store x86_fp80 %__x, x86_fp80* %1, align 16
  store x86_fp80 %__y, x86_fp80* %2, align 16
  %3 = load x86_fp80* %1, align 16
  %4 = load x86_fp80* %2, align 16
  %5 = call x86_fp80 @nextafterl(x86_fp80 %3, x86_fp80 %4) #1
  ret x86_fp80 %5
}

; Function Attrs: nounwind readnone
declare x86_fp80 @nextafterl(x86_fp80, x86_fp80) #12

; Function Attrs: nounwind uwtable
define linkonce_odr float @_ZSt10nexttowardfe(float %__x, x86_fp80 %__y) #2 {
  %1 = alloca float, align 4
  %2 = alloca x86_fp80, align 16
  store float %__x, float* %1, align 4
  store x86_fp80 %__y, x86_fp80* %2, align 16
  %3 = load float* %1, align 4
  %4 = load x86_fp80* %2, align 16
  %5 = call float @nexttowardf(float %3, x86_fp80 %4) #1
  ret float %5
}

; Function Attrs: nounwind readnone
declare float @nexttowardf(float, x86_fp80) #12

; Function Attrs: nounwind uwtable
define linkonce_odr x86_fp80 @_ZSt10nexttowardee(x86_fp80 %__x, x86_fp80 %__y) #2 {
  %1 = alloca x86_fp80, align 16
  %2 = alloca x86_fp80, align 16
  store x86_fp80 %__x, x86_fp80* %1, align 16
  store x86_fp80 %__y, x86_fp80* %2, align 16
  %3 = load x86_fp80* %1, align 16
  %4 = load x86_fp80* %2, align 16
  %5 = call x86_fp80 @nexttowardl(x86_fp80 %3, x86_fp80 %4) #1
  ret x86_fp80 %5
}

; Function Attrs: nounwind readnone
declare x86_fp80 @nexttowardl(x86_fp80, x86_fp80) #12

; Function Attrs: nounwind uwtable
define linkonce_odr float @_ZSt9remainderff(float %__x, float %__y) #2 {
  %1 = alloca float, align 4
  %2 = alloca float, align 4
  store float %__x, float* %1, align 4
  store float %__y, float* %2, align 4
  %3 = load float* %1, align 4
  %4 = load float* %2, align 4
  %5 = call float @remainderf(float %3, float %4) #1
  ret float %5
}

; Function Attrs: nounwind readnone
declare float @remainderf(float, float) #12

; Function Attrs: nounwind uwtable
define linkonce_odr x86_fp80 @_ZSt9remainderee(x86_fp80 %__x, x86_fp80 %__y) #2 {
  %1 = alloca x86_fp80, align 16
  %2 = alloca x86_fp80, align 16
  store x86_fp80 %__x, x86_fp80* %1, align 16
  store x86_fp80 %__y, x86_fp80* %2, align 16
  %3 = load x86_fp80* %1, align 16
  %4 = load x86_fp80* %2, align 16
  %5 = call x86_fp80 @remainderl(x86_fp80 %3, x86_fp80 %4) #1
  ret x86_fp80 %5
}

; Function Attrs: nounwind readnone
declare x86_fp80 @remainderl(x86_fp80, x86_fp80) #12

; Function Attrs: inlinehint nounwind uwtable
define linkonce_odr float @_ZSt6remquoffPi(float %__x, float %__y, i32* %__pquo) #0 {
  %1 = alloca float, align 4
  %2 = alloca float, align 4
  %3 = alloca i32*, align 8
  store float %__x, float* %1, align 4
  store float %__y, float* %2, align 4
  store i32* %__pquo, i32** %3, align 8
  %4 = load float* %1, align 4
  %5 = load float* %2, align 4
  %6 = load i32** %3, align 8
  %7 = call float @remquof(float %4, float %5, i32* %6) #8
  ret float %7
}

; Function Attrs: nounwind
declare float @remquof(float, float, i32*) #3

; Function Attrs: inlinehint nounwind uwtable
define linkonce_odr x86_fp80 @_ZSt6remquoeePi(x86_fp80 %__x, x86_fp80 %__y, i32* %__pquo) #0 {
  %1 = alloca x86_fp80, align 16
  %2 = alloca x86_fp80, align 16
  %3 = alloca i32*, align 8
  store x86_fp80 %__x, x86_fp80* %1, align 16
  store x86_fp80 %__y, x86_fp80* %2, align 16
  store i32* %__pquo, i32** %3, align 8
  %4 = load x86_fp80* %1, align 16
  %5 = load x86_fp80* %2, align 16
  %6 = load i32** %3, align 8
  %7 = call x86_fp80 @remquol(x86_fp80 %4, x86_fp80 %5, i32* %6) #8
  ret x86_fp80 %7
}

; Function Attrs: nounwind
declare x86_fp80 @remquol(x86_fp80, x86_fp80, i32*) #3

; Function Attrs: nounwind uwtable
define linkonce_odr float @_ZSt4rintf(float %__x) #2 {
  %1 = alloca float, align 4
  store float %__x, float* %1, align 4
  %2 = load float* %1, align 4
  %3 = call float @rintf(float %2) #1
  ret float %3
}

; Function Attrs: nounwind readnone
declare float @rintf(float) #12

; Function Attrs: nounwind uwtable
define linkonce_odr x86_fp80 @_ZSt4rinte(x86_fp80 %__x) #2 {
  %1 = alloca x86_fp80, align 16
  store x86_fp80 %__x, x86_fp80* %1, align 16
  %2 = load x86_fp80* %1, align 16
  %3 = call x86_fp80 @rintl(x86_fp80 %2) #1
  ret x86_fp80 %3
}

; Function Attrs: nounwind readnone
declare x86_fp80 @rintl(x86_fp80) #12

; Function Attrs: nounwind uwtable
define linkonce_odr float @_ZSt5roundf(float %__x) #2 {
  %1 = alloca float, align 4
  store float %__x, float* %1, align 4
  %2 = load float* %1, align 4
  %3 = call float @roundf(float %2) #1
  ret float %3
}

; Function Attrs: nounwind readnone
declare float @roundf(float) #12

; Function Attrs: nounwind uwtable
define linkonce_odr x86_fp80 @_ZSt5rounde(x86_fp80 %__x) #2 {
  %1 = alloca x86_fp80, align 16
  store x86_fp80 %__x, x86_fp80* %1, align 16
  %2 = load x86_fp80* %1, align 16
  %3 = call x86_fp80 @roundl(x86_fp80 %2) #1
  ret x86_fp80 %3
}

; Function Attrs: nounwind readnone
declare x86_fp80 @roundl(x86_fp80) #12

; Function Attrs: nounwind uwtable
define linkonce_odr float @_ZSt7scalblnfl(float %__x, i64 %__ex) #2 {
  %1 = alloca float, align 4
  %2 = alloca i64, align 8
  store float %__x, float* %1, align 4
  store i64 %__ex, i64* %2, align 8
  %3 = load float* %1, align 4
  %4 = load i64* %2, align 8
  %5 = call float @scalblnf(float %3, i64 %4) #1
  ret float %5
}

; Function Attrs: nounwind readnone
declare float @scalblnf(float, i64) #12

; Function Attrs: nounwind uwtable
define linkonce_odr x86_fp80 @_ZSt7scalblnel(x86_fp80 %__x, i64 %__ex) #2 {
  %1 = alloca x86_fp80, align 16
  %2 = alloca i64, align 8
  store x86_fp80 %__x, x86_fp80* %1, align 16
  store i64 %__ex, i64* %2, align 8
  %3 = load x86_fp80* %1, align 16
  %4 = load i64* %2, align 8
  %5 = call x86_fp80 @scalblnl(x86_fp80 %3, i64 %4) #1
  ret x86_fp80 %5
}

; Function Attrs: nounwind readnone
declare x86_fp80 @scalblnl(x86_fp80, i64) #12

; Function Attrs: nounwind uwtable
define linkonce_odr float @_ZSt6scalbnfi(float %__x, i32 %__ex) #2 {
  %1 = alloca float, align 4
  %2 = alloca i32, align 4
  store float %__x, float* %1, align 4
  store i32 %__ex, i32* %2, align 4
  %3 = load float* %1, align 4
  %4 = load i32* %2, align 4
  %5 = call float @scalbnf(float %3, i32 %4) #1
  ret float %5
}

; Function Attrs: nounwind readnone
declare float @scalbnf(float, i32) #12

; Function Attrs: nounwind uwtable
define linkonce_odr x86_fp80 @_ZSt6scalbnei(x86_fp80 %__x, i32 %__ex) #2 {
  %1 = alloca x86_fp80, align 16
  %2 = alloca i32, align 4
  store x86_fp80 %__x, x86_fp80* %1, align 16
  store i32 %__ex, i32* %2, align 4
  %3 = load x86_fp80* %1, align 16
  %4 = load i32* %2, align 4
  %5 = call x86_fp80 @scalbnl(x86_fp80 %3, i32 %4) #1
  ret x86_fp80 %5
}

; Function Attrs: nounwind readnone
declare x86_fp80 @scalbnl(x86_fp80, i32) #12

; Function Attrs: nounwind uwtable
define linkonce_odr float @_ZSt6tgammaf(float %__x) #2 {
  %1 = alloca float, align 4
  store float %__x, float* %1, align 4
  %2 = load float* %1, align 4
  %3 = call float @tgammaf(float %2) #1
  ret float %3
}

; Function Attrs: nounwind readnone
declare float @tgammaf(float) #12

; Function Attrs: nounwind uwtable
define linkonce_odr x86_fp80 @_ZSt6tgammae(x86_fp80 %__x) #2 {
  %1 = alloca x86_fp80, align 16
  store x86_fp80 %__x, x86_fp80* %1, align 16
  %2 = load x86_fp80* %1, align 16
  %3 = call x86_fp80 @tgammal(x86_fp80 %2) #1
  ret x86_fp80 %3
}

; Function Attrs: nounwind readnone
declare x86_fp80 @tgammal(x86_fp80) #12

; Function Attrs: nounwind uwtable
define linkonce_odr float @_ZSt5truncf(float %__x) #2 {
  %1 = alloca float, align 4
  store float %__x, float* %1, align 4
  %2 = load float* %1, align 4
  %3 = call float @truncf(float %2) #1
  ret float %3
}

; Function Attrs: nounwind readnone
declare float @truncf(float) #12

; Function Attrs: nounwind uwtable
define linkonce_odr x86_fp80 @_ZSt5trunce(x86_fp80 %__x) #2 {
  %1 = alloca x86_fp80, align 16
  store x86_fp80 %__x, x86_fp80* %1, align 16
  %2 = load x86_fp80* %1, align 16
  %3 = call x86_fp80 @truncl(x86_fp80 %2) #1
  ret x86_fp80 %3
}

; Function Attrs: nounwind readnone
declare x86_fp80 @truncl(x86_fp80) #12

; Function Attrs: inlinehint nounwind uwtable
define linkonce_odr i32* @_ZSt6wcschrPww(i32* %__p, i32 signext %__c) #0 {
  %1 = alloca i32*, align 8
  %2 = alloca i32, align 4
  store i32* %__p, i32** %1, align 8
  store i32 %__c, i32* %2, align 4
  %3 = load i32** %1, align 8
  %4 = load i32* %2, align 4
  %5 = call i32* @wcschr(i32* %3, i32 signext %4) #20
  ret i32* %5
}

; Function Attrs: nounwind readonly
declare i32* @wcschr(i32*, i32 signext) #13

; Function Attrs: inlinehint nounwind uwtable
define linkonce_odr i32* @_ZSt7wcspbrkPwPKw(i32* %__s1, i32* %__s2) #0 {
  %1 = alloca i32*, align 8
  %2 = alloca i32*, align 8
  store i32* %__s1, i32** %1, align 8
  store i32* %__s2, i32** %2, align 8
  %3 = load i32** %1, align 8
  %4 = load i32** %2, align 8
  %5 = call i32* @wcspbrk(i32* %3, i32* %4) #20
  ret i32* %5
}

; Function Attrs: nounwind readonly
declare i32* @wcspbrk(i32*, i32*) #13

; Function Attrs: inlinehint nounwind uwtable
define linkonce_odr i32* @_ZSt7wcsrchrPww(i32* %__p, i32 signext %__c) #0 {
  %1 = alloca i32*, align 8
  %2 = alloca i32, align 4
  store i32* %__p, i32** %1, align 8
  store i32 %__c, i32* %2, align 4
  %3 = load i32** %1, align 8
  %4 = load i32* %2, align 4
  %5 = call i32* @wcsrchr(i32* %3, i32 signext %4) #20
  ret i32* %5
}

; Function Attrs: nounwind readonly
declare i32* @wcsrchr(i32*, i32 signext) #13

; Function Attrs: inlinehint nounwind uwtable
define linkonce_odr i32* @_ZSt6wcsstrPwPKw(i32* %__s1, i32* %__s2) #0 {
  %1 = alloca i32*, align 8
  %2 = alloca i32*, align 8
  store i32* %__s1, i32** %1, align 8
  store i32* %__s2, i32** %2, align 8
  %3 = load i32** %1, align 8
  %4 = load i32** %2, align 8
  %5 = call i32* @wcsstr(i32* %3, i32* %4) #20
  ret i32* %5
}

; Function Attrs: nounwind readonly
declare i32* @wcsstr(i32*, i32*) #13

; Function Attrs: inlinehint nounwind uwtable
define linkonce_odr i32* @_ZSt7wmemchrPwwm(i32* %__p, i32 signext %__c, i64 %__n) #0 {
  %1 = alloca i32*, align 8
  %2 = alloca i32, align 4
  %3 = alloca i64, align 8
  store i32* %__p, i32** %1, align 8
  store i32 %__c, i32* %2, align 4
  store i64 %__n, i64* %3, align 8
  %4 = load i32** %1, align 8
  %5 = load i32* %2, align 4
  %6 = load i64* %3, align 8
  %7 = call i32* @wmemchr(i32* %4, i32 signext %5, i64 %6) #20
  ret i32* %7
}

; Function Attrs: nounwind readonly
declare i32* @wmemchr(i32*, i32 signext, i64) #13

; Function Attrs: nounwind uwtable
define linkonce_odr void @_ZNSt11char_traitsIcE6assignERcRKc(i8* dereferenceable(1) %__c1, i8* dereferenceable(1) %__c2) #2 align 2 {
  %1 = alloca i8*, align 8
  %2 = alloca i8*, align 8
  store i8* %__c1, i8** %1, align 8
  store i8* %__c2, i8** %2, align 8
  %3 = load i8** %2, align 8
  %4 = load i8* %3, align 1
  %5 = load i8** %1, align 8
  store i8 %4, i8* %5, align 1
  ret void
}

; Function Attrs: nounwind uwtable
define linkonce_odr zeroext i1 @_ZNSt11char_traitsIcE2eqERKcS2_(i8* dereferenceable(1) %__c1, i8* dereferenceable(1) %__c2) #2 align 2 {
  %1 = alloca i8*, align 8
  %2 = alloca i8*, align 8
  store i8* %__c1, i8** %1, align 8
  store i8* %__c2, i8** %2, align 8
  %3 = load i8** %1, align 8
  %4 = load i8* %3, align 1
  %5 = sext i8 %4 to i32
  %6 = load i8** %2, align 8
  %7 = load i8* %6, align 1
  %8 = sext i8 %7 to i32
  %9 = icmp eq i32 %5, %8
  ret i1 %9
}

; Function Attrs: nounwind uwtable
define linkonce_odr zeroext i1 @_ZNSt11char_traitsIcE2ltERKcS2_(i8* dereferenceable(1) %__c1, i8* dereferenceable(1) %__c2) #2 align 2 {
  %1 = alloca i8*, align 8
  %2 = alloca i8*, align 8
  store i8* %__c1, i8** %1, align 8
  store i8* %__c2, i8** %2, align 8
  %3 = load i8** %1, align 8
  %4 = load i8* %3, align 1
  %5 = zext i8 %4 to i32
  %6 = load i8** %2, align 8
  %7 = load i8* %6, align 1
  %8 = zext i8 %7 to i32
  %9 = icmp slt i32 %5, %8
  ret i1 %9
}

; Function Attrs: nounwind uwtable
define linkonce_odr i32 @_ZNSt11char_traitsIcE7compareEPKcS2_m(i8* %__s1, i8* %__s2, i64 %__n) #2 align 2 {
  %1 = alloca i8*, align 8
  %2 = alloca i8*, align 8
  %3 = alloca i64, align 8
  store i8* %__s1, i8** %1, align 8
  store i8* %__s2, i8** %2, align 8
  store i64 %__n, i64* %3, align 8
  %4 = load i8** %1, align 8
  %5 = load i8** %2, align 8
  %6 = load i64* %3, align 8
  %7 = call i32 @memcmp(i8* %4, i8* %5, i64 %6) #8
  ret i32 %7
}

; Function Attrs: nounwind
declare i32 @memcmp(i8*, i8*, i64) #3

; Function Attrs: nounwind uwtable
define linkonce_odr i64 @_ZNSt11char_traitsIcE6lengthEPKc(i8* %__s) #2 align 2 {
  %1 = alloca i8*, align 8
  store i8* %__s, i8** %1, align 8
  %2 = load i8** %1, align 8
  %3 = call i64 @strlen(i8* %2) #8
  ret i64 %3
}

; Function Attrs: nounwind
declare i64 @strlen(i8*) #3

; Function Attrs: nounwind uwtable
define linkonce_odr i8* @_ZNSt11char_traitsIcE4findEPKcmRS1_(i8* %__s, i64 %__n, i8* dereferenceable(1) %__a) #2 align 2 {
  %1 = alloca i8*, align 8
  %2 = alloca i64, align 8
  %3 = alloca i8*, align 8
  store i8* %__s, i8** %1, align 8
  store i64 %__n, i64* %2, align 8
  store i8* %__a, i8** %3, align 8
  %4 = load i8** %1, align 8
  %5 = load i8** %3, align 8
  %6 = load i8* %5, align 1
  %7 = sext i8 %6 to i32
  %8 = load i64* %2, align 8
  %9 = call i8* @memchr(i8* %4, i32 %7, i64 %8) #8
  ret i8* %9
}

; Function Attrs: nounwind
declare i8* @memchr(i8*, i32, i64) #3

; Function Attrs: nounwind uwtable
define linkonce_odr i8* @_ZNSt11char_traitsIcE4moveEPcPKcm(i8* %__s1, i8* %__s2, i64 %__n) #2 align 2 {
  %1 = alloca i8*, align 8
  %2 = alloca i8*, align 8
  %3 = alloca i64, align 8
  store i8* %__s1, i8** %1, align 8
  store i8* %__s2, i8** %2, align 8
  store i64 %__n, i64* %3, align 8
  %4 = load i8** %1, align 8
  %5 = load i8** %2, align 8
  %6 = load i64* %3, align 8
  call void @llvm.memmove.p0i8.p0i8.i64(i8* %4, i8* %5, i64 %6, i32 1, i1 false)
  ret i8* %4
}

; Function Attrs: nounwind
declare void @llvm.memmove.p0i8.p0i8.i64(i8* nocapture, i8* nocapture readonly, i64, i32, i1) #8

; Function Attrs: nounwind uwtable
define linkonce_odr i8* @_ZNSt11char_traitsIcE4copyEPcPKcm(i8* %__s1, i8* %__s2, i64 %__n) #2 align 2 {
  %1 = alloca i8*, align 8
  %2 = alloca i8*, align 8
  %3 = alloca i64, align 8
  store i8* %__s1, i8** %1, align 8
  store i8* %__s2, i8** %2, align 8
  store i64 %__n, i64* %3, align 8
  %4 = load i8** %1, align 8
  %5 = load i8** %2, align 8
  %6 = load i64* %3, align 8
  call void @llvm.memcpy.p0i8.p0i8.i64(i8* %4, i8* %5, i64 %6, i32 1, i1 false)
  ret i8* %4
}

; Function Attrs: nounwind uwtable
define linkonce_odr i8* @_ZNSt11char_traitsIcE6assignEPcmc(i8* %__s, i64 %__n, i8 signext %__a) #2 align 2 {
  %1 = alloca i8*, align 8
  %2 = alloca i64, align 8
  %3 = alloca i8, align 1
  store i8* %__s, i8** %1, align 8
  store i64 %__n, i64* %2, align 8
  store i8 %__a, i8* %3, align 1
  %4 = load i8** %1, align 8
  %5 = load i8* %3, align 1
  %6 = sext i8 %5 to i32
  %7 = trunc i32 %6 to i8
  %8 = load i64* %2, align 8
  call void @llvm.memset.p0i8.i64(i8* %4, i8 %7, i64 %8, i32 1, i1 false)
  ret i8* %4
}

; Function Attrs: nounwind
declare void @llvm.memset.p0i8.i64(i8* nocapture, i8, i64, i32, i1) #8

; Function Attrs: nounwind uwtable
define linkonce_odr signext i8 @_ZNSt11char_traitsIcE12to_char_typeERKi(i32* dereferenceable(4) %__c) #2 align 2 {
  %1 = alloca i32*, align 8
  store i32* %__c, i32** %1, align 8
  %2 = load i32** %1, align 8
  %3 = load i32* %2, align 4
  %4 = trunc i32 %3 to i8
  ret i8 %4
}

; Function Attrs: nounwind uwtable
define linkonce_odr i32 @_ZNSt11char_traitsIcE11to_int_typeERKc(i8* dereferenceable(1) %__c) #2 align 2 {
  %1 = alloca i8*, align 8
  store i8* %__c, i8** %1, align 8
  %2 = load i8** %1, align 8
  %3 = load i8* %2, align 1
  %4 = zext i8 %3 to i32
  ret i32 %4
}

; Function Attrs: nounwind uwtable
define linkonce_odr zeroext i1 @_ZNSt11char_traitsIcE11eq_int_typeERKiS2_(i32* dereferenceable(4) %__c1, i32* dereferenceable(4) %__c2) #2 align 2 {
  %1 = alloca i32*, align 8
  %2 = alloca i32*, align 8
  store i32* %__c1, i32** %1, align 8
  store i32* %__c2, i32** %2, align 8
  %3 = load i32** %1, align 8
  %4 = load i32* %3, align 4
  %5 = load i32** %2, align 8
  %6 = load i32* %5, align 4
  %7 = icmp eq i32 %4, %6
  ret i1 %7
}

; Function Attrs: nounwind uwtable
define linkonce_odr i32 @_ZNSt11char_traitsIcE3eofEv() #2 align 2 {
  ret i32 -1
}

; Function Attrs: nounwind uwtable
define linkonce_odr i32 @_ZNSt11char_traitsIcE7not_eofERKi(i32* dereferenceable(4) %__c) #2 align 2 {
  %1 = alloca i32*, align 8
  store i32* %__c, i32** %1, align 8
  %2 = load i32** %1, align 8
  %3 = load i32* %2, align 4
  %4 = call i32 @_ZNSt11char_traitsIcE3eofEv() #8
  %5 = icmp eq i32 %3, %4
  br i1 %5, label %6, label %7

; <label>:6                                       ; preds = %0
  br label %10

; <label>:7                                       ; preds = %0
  %8 = load i32** %1, align 8
  %9 = load i32* %8, align 4
  br label %10

; <label>:10                                      ; preds = %7, %6
  %11 = phi i32 [ 0, %6 ], [ %9, %7 ]
  ret i32 %11
}

; Function Attrs: nounwind uwtable
define linkonce_odr void @_ZNSt11char_traitsIwE6assignERwRKw(i32* dereferenceable(4) %__c1, i32* dereferenceable(4) %__c2) #2 align 2 {
  %1 = alloca i32*, align 8
  %2 = alloca i32*, align 8
  store i32* %__c1, i32** %1, align 8
  store i32* %__c2, i32** %2, align 8
  %3 = load i32** %2, align 8
  %4 = load i32* %3, align 4
  %5 = load i32** %1, align 8
  store i32 %4, i32* %5, align 4
  ret void
}

; Function Attrs: nounwind uwtable
define linkonce_odr zeroext i1 @_ZNSt11char_traitsIwE2eqERKwS2_(i32* dereferenceable(4) %__c1, i32* dereferenceable(4) %__c2) #2 align 2 {
  %1 = alloca i32*, align 8
  %2 = alloca i32*, align 8
  store i32* %__c1, i32** %1, align 8
  store i32* %__c2, i32** %2, align 8
  %3 = load i32** %1, align 8
  %4 = load i32* %3, align 4
  %5 = load i32** %2, align 8
  %6 = load i32* %5, align 4
  %7 = icmp eq i32 %4, %6
  ret i1 %7
}

; Function Attrs: nounwind uwtable
define linkonce_odr zeroext i1 @_ZNSt11char_traitsIwE2ltERKwS2_(i32* dereferenceable(4) %__c1, i32* dereferenceable(4) %__c2) #2 align 2 {
  %1 = alloca i32*, align 8
  %2 = alloca i32*, align 8
  store i32* %__c1, i32** %1, align 8
  store i32* %__c2, i32** %2, align 8
  %3 = load i32** %1, align 8
  %4 = load i32* %3, align 4
  %5 = load i32** %2, align 8
  %6 = load i32* %5, align 4
  %7 = icmp slt i32 %4, %6
  ret i1 %7
}

; Function Attrs: nounwind uwtable
define linkonce_odr i32 @_ZNSt11char_traitsIwE7compareEPKwS2_m(i32* %__s1, i32* %__s2, i64 %__n) #2 align 2 {
  %1 = alloca i32*, align 8
  %2 = alloca i32*, align 8
  %3 = alloca i64, align 8
  store i32* %__s1, i32** %1, align 8
  store i32* %__s2, i32** %2, align 8
  store i64 %__n, i64* %3, align 8
  %4 = load i32** %1, align 8
  %5 = load i32** %2, align 8
  %6 = load i64* %3, align 8
  %7 = call i32 @wmemcmp(i32* %4, i32* %5, i64 %6) #20
  ret i32 %7
}

; Function Attrs: nounwind readonly
declare i32 @wmemcmp(i32*, i32*, i64) #13

; Function Attrs: nounwind uwtable
define linkonce_odr i64 @_ZNSt11char_traitsIwE6lengthEPKw(i32* %__s) #2 align 2 {
  %1 = alloca i32*, align 8
  store i32* %__s, i32** %1, align 8
  %2 = load i32** %1, align 8
  %3 = call i64 @wcslen(i32* %2) #20
  ret i64 %3
}

; Function Attrs: nounwind readonly
declare i64 @wcslen(i32*) #13

; Function Attrs: nounwind uwtable
define linkonce_odr i32* @_ZNSt11char_traitsIwE4findEPKwmRS1_(i32* %__s, i64 %__n, i32* dereferenceable(4) %__a) #2 align 2 {
  %1 = alloca i32*, align 8
  %2 = alloca i64, align 8
  %3 = alloca i32*, align 8
  store i32* %__s, i32** %1, align 8
  store i64 %__n, i64* %2, align 8
  store i32* %__a, i32** %3, align 8
  %4 = load i32** %1, align 8
  %5 = load i32** %3, align 8
  %6 = load i32* %5, align 4
  %7 = load i64* %2, align 8
  %8 = call i32* @wmemchr(i32* %4, i32 signext %6, i64 %7) #20
  ret i32* %8
}

; Function Attrs: nounwind uwtable
define linkonce_odr i32* @_ZNSt11char_traitsIwE4moveEPwPKwm(i32* %__s1, i32* %__s2, i64 %__n) #2 align 2 {
  %1 = alloca i32*, align 8
  %2 = alloca i32*, align 8
  %3 = alloca i64, align 8
  store i32* %__s1, i32** %1, align 8
  store i32* %__s2, i32** %2, align 8
  store i64 %__n, i64* %3, align 8
  %4 = load i32** %1, align 8
  %5 = load i32** %2, align 8
  %6 = load i64* %3, align 8
  %7 = call i32* @wmemmove(i32* %4, i32* %5, i64 %6) #8
  ret i32* %7
}

; Function Attrs: nounwind
declare i32* @wmemmove(i32*, i32*, i64) #3

; Function Attrs: nounwind uwtable
define linkonce_odr i32* @_ZNSt11char_traitsIwE4copyEPwPKwm(i32* %__s1, i32* %__s2, i64 %__n) #2 align 2 {
  %1 = alloca i32*, align 8
  %2 = alloca i32*, align 8
  %3 = alloca i64, align 8
  store i32* %__s1, i32** %1, align 8
  store i32* %__s2, i32** %2, align 8
  store i64 %__n, i64* %3, align 8
  %4 = load i32** %1, align 8
  %5 = load i32** %2, align 8
  %6 = load i64* %3, align 8
  %7 = call i32* @wmemcpy(i32* %4, i32* %5, i64 %6) #8
  ret i32* %7
}

; Function Attrs: nounwind
declare i32* @wmemcpy(i32*, i32*, i64) #3

; Function Attrs: nounwind uwtable
define linkonce_odr i32* @_ZNSt11char_traitsIwE6assignEPwmw(i32* %__s, i64 %__n, i32 signext %__a) #2 align 2 {
  %1 = alloca i32*, align 8
  %2 = alloca i64, align 8
  %3 = alloca i32, align 4
  store i32* %__s, i32** %1, align 8
  store i64 %__n, i64* %2, align 8
  store i32 %__a, i32* %3, align 4
  %4 = load i32** %1, align 8
  %5 = load i32* %3, align 4
  %6 = load i64* %2, align 8
  %7 = call i32* @wmemset(i32* %4, i32 signext %5, i64 %6) #8
  ret i32* %7
}

; Function Attrs: nounwind
declare i32* @wmemset(i32*, i32 signext, i64) #3

; Function Attrs: nounwind uwtable
define linkonce_odr signext i32 @_ZNSt11char_traitsIwE12to_char_typeERKj(i32* dereferenceable(4) %__c) #2 align 2 {
  %1 = alloca i32*, align 8
  store i32* %__c, i32** %1, align 8
  %2 = load i32** %1, align 8
  %3 = load i32* %2, align 4
  ret i32 %3
}

; Function Attrs: nounwind uwtable
define linkonce_odr i32 @_ZNSt11char_traitsIwE11to_int_typeERKw(i32* dereferenceable(4) %__c) #2 align 2 {
  %1 = alloca i32*, align 8
  store i32* %__c, i32** %1, align 8
  %2 = load i32** %1, align 8
  %3 = load i32* %2, align 4
  ret i32 %3
}

; Function Attrs: nounwind uwtable
define linkonce_odr zeroext i1 @_ZNSt11char_traitsIwE11eq_int_typeERKjS2_(i32* dereferenceable(4) %__c1, i32* dereferenceable(4) %__c2) #2 align 2 {
  %1 = alloca i32*, align 8
  %2 = alloca i32*, align 8
  store i32* %__c1, i32** %1, align 8
  store i32* %__c2, i32** %2, align 8
  %3 = load i32** %1, align 8
  %4 = load i32* %3, align 4
  %5 = load i32** %2, align 8
  %6 = load i32* %5, align 4
  %7 = icmp eq i32 %4, %6
  ret i1 %7
}

; Function Attrs: nounwind uwtable
define linkonce_odr i32 @_ZNSt11char_traitsIwE3eofEv() #2 align 2 {
  ret i32 -1
}

; Function Attrs: nounwind uwtable
define linkonce_odr i32 @_ZNSt11char_traitsIwE7not_eofERKj(i32* dereferenceable(4) %__c) #2 align 2 {
  %1 = alloca i32*, align 8
  %2 = alloca i32, align 4
  store i32* %__c, i32** %1, align 8
  %3 = load i32** %1, align 8
  %4 = call i32 @_ZNSt11char_traitsIwE3eofEv() #8
  store i32 %4, i32* %2
  %5 = call zeroext i1 @_ZNSt11char_traitsIwE11eq_int_typeERKjS2_(i32* dereferenceable(4) %3, i32* dereferenceable(4) %2) #8
  br i1 %5, label %6, label %7

; <label>:6                                       ; preds = %0
  br label %10

; <label>:7                                       ; preds = %0
  %8 = load i32** %1, align 8
  %9 = load i32* %8, align 4
  br label %10

; <label>:10                                      ; preds = %7, %6
  %11 = phi i32 [ 0, %6 ], [ %9, %7 ]
  ret i32 %11
}

; Function Attrs: nounwind uwtable
define linkonce_odr void @_ZNSt11char_traitsIDsE6assignERDsRKDs(i16* dereferenceable(2) %__c1, i16* dereferenceable(2) %__c2) #2 align 2 {
  %1 = alloca i16*, align 8
  %2 = alloca i16*, align 8
  store i16* %__c1, i16** %1, align 8
  store i16* %__c2, i16** %2, align 8
  %3 = load i16** %2, align 8
  %4 = load i16* %3, align 2
  %5 = load i16** %1, align 8
  store i16 %4, i16* %5, align 2
  ret void
}

; Function Attrs: nounwind uwtable
define linkonce_odr zeroext i1 @_ZNSt11char_traitsIDsE2eqERKDsS2_(i16* dereferenceable(2) %__c1, i16* dereferenceable(2) %__c2) #2 align 2 {
  %1 = alloca i16*, align 8
  %2 = alloca i16*, align 8
  store i16* %__c1, i16** %1, align 8
  store i16* %__c2, i16** %2, align 8
  %3 = load i16** %1, align 8
  %4 = load i16* %3, align 2
  %5 = zext i16 %4 to i32
  %6 = load i16** %2, align 8
  %7 = load i16* %6, align 2
  %8 = zext i16 %7 to i32
  %9 = icmp eq i32 %5, %8
  ret i1 %9
}

; Function Attrs: nounwind uwtable
define linkonce_odr zeroext i1 @_ZNSt11char_traitsIDsE2ltERKDsS2_(i16* dereferenceable(2) %__c1, i16* dereferenceable(2) %__c2) #2 align 2 {
  %1 = alloca i16*, align 8
  %2 = alloca i16*, align 8
  store i16* %__c1, i16** %1, align 8
  store i16* %__c2, i16** %2, align 8
  %3 = load i16** %1, align 8
  %4 = load i16* %3, align 2
  %5 = zext i16 %4 to i32
  %6 = load i16** %2, align 8
  %7 = load i16* %6, align 2
  %8 = zext i16 %7 to i32
  %9 = icmp slt i32 %5, %8
  ret i1 %9
}

; Function Attrs: nounwind uwtable
define linkonce_odr i32 @_ZNSt11char_traitsIDsE7compareEPKDsS2_m(i16* %__s1, i16* %__s2, i64 %__n) #2 align 2 {
  %1 = alloca i32, align 4
  %2 = alloca i16*, align 8
  %3 = alloca i16*, align 8
  %4 = alloca i64, align 8
  %__i = alloca i64, align 8
  store i16* %__s1, i16** %2, align 8
  store i16* %__s2, i16** %3, align 8
  store i64 %__n, i64* %4, align 8
  store i64 0, i64* %__i, align 8
  br label %5

; <label>:5                                       ; preds = %29, %0
  %6 = load i64* %__i, align 8
  %7 = load i64* %4, align 8
  %8 = icmp ult i64 %6, %7
  br i1 %8, label %9, label %32

; <label>:9                                       ; preds = %5
  %10 = load i64* %__i, align 8
  %11 = load i16** %2, align 8
  %12 = getelementptr inbounds i16* %11, i64 %10
  %13 = load i64* %__i, align 8
  %14 = load i16** %3, align 8
  %15 = getelementptr inbounds i16* %14, i64 %13
  %16 = call zeroext i1 @_ZNSt11char_traitsIDsE2ltERKDsS2_(i16* dereferenceable(2) %12, i16* dereferenceable(2) %15) #8
  br i1 %16, label %17, label %18

; <label>:17                                      ; preds = %9
  store i32 -1, i32* %1
  br label %33

; <label>:18                                      ; preds = %9
  %19 = load i64* %__i, align 8
  %20 = load i16** %3, align 8
  %21 = getelementptr inbounds i16* %20, i64 %19
  %22 = load i64* %__i, align 8
  %23 = load i16** %2, align 8
  %24 = getelementptr inbounds i16* %23, i64 %22
  %25 = call zeroext i1 @_ZNSt11char_traitsIDsE2ltERKDsS2_(i16* dereferenceable(2) %21, i16* dereferenceable(2) %24) #8
  br i1 %25, label %26, label %27

; <label>:26                                      ; preds = %18
  store i32 1, i32* %1
  br label %33

; <label>:27                                      ; preds = %18
  br label %28

; <label>:28                                      ; preds = %27
  br label %29

; <label>:29                                      ; preds = %28
  %30 = load i64* %__i, align 8
  %31 = add i64 %30, 1
  store i64 %31, i64* %__i, align 8
  br label %5

; <label>:32                                      ; preds = %5
  store i32 0, i32* %1
  br label %33

; <label>:33                                      ; preds = %32, %26, %17
  %34 = load i32* %1
  ret i32 %34
}

; Function Attrs: nounwind uwtable
define linkonce_odr i64 @_ZNSt11char_traitsIDsE6lengthEPKDs(i16* %__s) #2 align 2 {
  %1 = alloca i16*, align 8
  %__i = alloca i64, align 8
  %2 = alloca i16, align 2
  store i16* %__s, i16** %1, align 8
  store i64 0, i64* %__i, align 8
  br label %3

; <label>:3                                       ; preds = %9, %0
  %4 = load i64* %__i, align 8
  %5 = load i16** %1, align 8
  %6 = getelementptr inbounds i16* %5, i64 %4
  store i16 0, i16* %2
  %7 = call zeroext i1 @_ZNSt11char_traitsIDsE2eqERKDsS2_(i16* dereferenceable(2) %6, i16* dereferenceable(2) %2) #8
  %8 = xor i1 %7, true
  br i1 %8, label %9, label %12

; <label>:9                                       ; preds = %3
  %10 = load i64* %__i, align 8
  %11 = add i64 %10, 1
  store i64 %11, i64* %__i, align 8
  br label %3

; <label>:12                                      ; preds = %3
  %13 = load i64* %__i, align 8
  ret i64 %13
}

; Function Attrs: nounwind uwtable
define linkonce_odr i16* @_ZNSt11char_traitsIDsE4findEPKDsmRS1_(i16* %__s, i64 %__n, i16* dereferenceable(2) %__a) #2 align 2 {
  %1 = alloca i16*, align 8
  %2 = alloca i16*, align 8
  %3 = alloca i64, align 8
  %4 = alloca i16*, align 8
  %__i = alloca i64, align 8
  store i16* %__s, i16** %2, align 8
  store i64 %__n, i64* %3, align 8
  store i16* %__a, i16** %4, align 8
  store i64 0, i64* %__i, align 8
  br label %5

; <label>:5                                       ; preds = %20, %0
  %6 = load i64* %__i, align 8
  %7 = load i64* %3, align 8
  %8 = icmp ult i64 %6, %7
  br i1 %8, label %9, label %23

; <label>:9                                       ; preds = %5
  %10 = load i64* %__i, align 8
  %11 = load i16** %2, align 8
  %12 = getelementptr inbounds i16* %11, i64 %10
  %13 = load i16** %4, align 8
  %14 = call zeroext i1 @_ZNSt11char_traitsIDsE2eqERKDsS2_(i16* dereferenceable(2) %12, i16* dereferenceable(2) %13) #8
  br i1 %14, label %15, label %19

; <label>:15                                      ; preds = %9
  %16 = load i16** %2, align 8
  %17 = load i64* %__i, align 8
  %18 = getelementptr inbounds i16* %16, i64 %17
  store i16* %18, i16** %1
  br label %24

; <label>:19                                      ; preds = %9
  br label %20

; <label>:20                                      ; preds = %19
  %21 = load i64* %__i, align 8
  %22 = add i64 %21, 1
  store i64 %22, i64* %__i, align 8
  br label %5

; <label>:23                                      ; preds = %5
  store i16* null, i16** %1
  br label %24

; <label>:24                                      ; preds = %23, %15
  %25 = load i16** %1
  ret i16* %25
}

; Function Attrs: nounwind uwtable
define linkonce_odr i16* @_ZNSt11char_traitsIDsE4moveEPDsPKDsm(i16* %__s1, i16* %__s2, i64 %__n) #2 align 2 {
  %1 = alloca i16*, align 8
  %2 = alloca i16*, align 8
  %3 = alloca i64, align 8
  store i16* %__s1, i16** %1, align 8
  store i16* %__s2, i16** %2, align 8
  store i64 %__n, i64* %3, align 8
  %4 = load i16** %1, align 8
  %5 = bitcast i16* %4 to i8*
  %6 = load i16** %2, align 8
  %7 = bitcast i16* %6 to i8*
  %8 = load i64* %3, align 8
  %9 = mul i64 %8, 2
  call void @llvm.memmove.p0i8.p0i8.i64(i8* %5, i8* %7, i64 %9, i32 2, i1 false)
  %10 = bitcast i8* %5 to i16*
  ret i16* %10
}

; Function Attrs: nounwind uwtable
define linkonce_odr i16* @_ZNSt11char_traitsIDsE4copyEPDsPKDsm(i16* %__s1, i16* %__s2, i64 %__n) #2 align 2 {
  %1 = alloca i16*, align 8
  %2 = alloca i16*, align 8
  %3 = alloca i64, align 8
  store i16* %__s1, i16** %1, align 8
  store i16* %__s2, i16** %2, align 8
  store i64 %__n, i64* %3, align 8
  %4 = load i16** %1, align 8
  %5 = bitcast i16* %4 to i8*
  %6 = load i16** %2, align 8
  %7 = bitcast i16* %6 to i8*
  %8 = load i64* %3, align 8
  %9 = mul i64 %8, 2
  call void @llvm.memcpy.p0i8.p0i8.i64(i8* %5, i8* %7, i64 %9, i32 2, i1 false)
  %10 = bitcast i8* %5 to i16*
  ret i16* %10
}

; Function Attrs: nounwind uwtable
define linkonce_odr i16* @_ZNSt11char_traitsIDsE6assignEPDsmDs(i16* %__s, i64 %__n, i16 zeroext %__a) #2 align 2 {
  %1 = alloca i16*, align 8
  %2 = alloca i64, align 8
  %3 = alloca i16, align 2
  %__i = alloca i64, align 8
  store i16* %__s, i16** %1, align 8
  store i64 %__n, i64* %2, align 8
  store i16 %__a, i16* %3, align 2
  store i64 0, i64* %__i, align 8
  br label %4

; <label>:4                                       ; preds = %12, %0
  %5 = load i64* %__i, align 8
  %6 = load i64* %2, align 8
  %7 = icmp ult i64 %5, %6
  br i1 %7, label %8, label %15

; <label>:8                                       ; preds = %4
  %9 = load i64* %__i, align 8
  %10 = load i16** %1, align 8
  %11 = getelementptr inbounds i16* %10, i64 %9
  call void @_ZNSt11char_traitsIDsE6assignERDsRKDs(i16* dereferenceable(2) %11, i16* dereferenceable(2) %3) #8
  br label %12

; <label>:12                                      ; preds = %8
  %13 = load i64* %__i, align 8
  %14 = add i64 %13, 1
  store i64 %14, i64* %__i, align 8
  br label %4

; <label>:15                                      ; preds = %4
  %16 = load i16** %1, align 8
  ret i16* %16
}

; Function Attrs: nounwind uwtable
define linkonce_odr zeroext i16 @_ZNSt11char_traitsIDsE12to_char_typeERKt(i16* dereferenceable(2) %__c) #2 align 2 {
  %1 = alloca i16*, align 8
  store i16* %__c, i16** %1, align 8
  %2 = load i16** %1, align 8
  %3 = load i16* %2, align 2
  ret i16 %3
}

; Function Attrs: nounwind uwtable
define linkonce_odr zeroext i16 @_ZNSt11char_traitsIDsE11to_int_typeERKDs(i16* dereferenceable(2) %__c) #2 align 2 {
  %1 = alloca i16*, align 8
  store i16* %__c, i16** %1, align 8
  %2 = load i16** %1, align 8
  %3 = load i16* %2, align 2
  ret i16 %3
}

; Function Attrs: nounwind uwtable
define linkonce_odr zeroext i1 @_ZNSt11char_traitsIDsE11eq_int_typeERKtS2_(i16* dereferenceable(2) %__c1, i16* dereferenceable(2) %__c2) #2 align 2 {
  %1 = alloca i16*, align 8
  %2 = alloca i16*, align 8
  store i16* %__c1, i16** %1, align 8
  store i16* %__c2, i16** %2, align 8
  %3 = load i16** %1, align 8
  %4 = load i16* %3, align 2
  %5 = zext i16 %4 to i32
  %6 = load i16** %2, align 8
  %7 = load i16* %6, align 2
  %8 = zext i16 %7 to i32
  %9 = icmp eq i32 %5, %8
  ret i1 %9
}

; Function Attrs: nounwind uwtable
define linkonce_odr zeroext i16 @_ZNSt11char_traitsIDsE3eofEv() #2 align 2 {
  ret i16 -1
}

; Function Attrs: nounwind uwtable
define linkonce_odr zeroext i16 @_ZNSt11char_traitsIDsE7not_eofERKt(i16* dereferenceable(2) %__c) #2 align 2 {
  %1 = alloca i16*, align 8
  %2 = alloca i16, align 2
  store i16* %__c, i16** %1, align 8
  %3 = load i16** %1, align 8
  %4 = call zeroext i16 @_ZNSt11char_traitsIDsE3eofEv() #8
  store i16 %4, i16* %2
  %5 = call zeroext i1 @_ZNSt11char_traitsIDsE11eq_int_typeERKtS2_(i16* dereferenceable(2) %3, i16* dereferenceable(2) %2) #8
  br i1 %5, label %6, label %7

; <label>:6                                       ; preds = %0
  br label %11

; <label>:7                                       ; preds = %0
  %8 = load i16** %1, align 8
  %9 = load i16* %8, align 2
  %10 = zext i16 %9 to i32
  br label %11

; <label>:11                                      ; preds = %7, %6
  %12 = phi i32 [ 0, %6 ], [ %10, %7 ]
  %13 = trunc i32 %12 to i16
  ret i16 %13
}

; Function Attrs: nounwind uwtable
define linkonce_odr void @_ZNSt11char_traitsIDiE6assignERDiRKDi(i32* dereferenceable(4) %__c1, i32* dereferenceable(4) %__c2) #2 align 2 {
  %1 = alloca i32*, align 8
  %2 = alloca i32*, align 8
  store i32* %__c1, i32** %1, align 8
  store i32* %__c2, i32** %2, align 8
  %3 = load i32** %2, align 8
  %4 = load i32* %3, align 4
  %5 = load i32** %1, align 8
  store i32 %4, i32* %5, align 4
  ret void
}

; Function Attrs: nounwind uwtable
define linkonce_odr zeroext i1 @_ZNSt11char_traitsIDiE2eqERKDiS2_(i32* dereferenceable(4) %__c1, i32* dereferenceable(4) %__c2) #2 align 2 {
  %1 = alloca i32*, align 8
  %2 = alloca i32*, align 8
  store i32* %__c1, i32** %1, align 8
  store i32* %__c2, i32** %2, align 8
  %3 = load i32** %1, align 8
  %4 = load i32* %3, align 4
  %5 = load i32** %2, align 8
  %6 = load i32* %5, align 4
  %7 = icmp eq i32 %4, %6
  ret i1 %7
}

; Function Attrs: nounwind uwtable
define linkonce_odr zeroext i1 @_ZNSt11char_traitsIDiE2ltERKDiS2_(i32* dereferenceable(4) %__c1, i32* dereferenceable(4) %__c2) #2 align 2 {
  %1 = alloca i32*, align 8
  %2 = alloca i32*, align 8
  store i32* %__c1, i32** %1, align 8
  store i32* %__c2, i32** %2, align 8
  %3 = load i32** %1, align 8
  %4 = load i32* %3, align 4
  %5 = load i32** %2, align 8
  %6 = load i32* %5, align 4
  %7 = icmp ult i32 %4, %6
  ret i1 %7
}

; Function Attrs: nounwind uwtable
define linkonce_odr i32 @_ZNSt11char_traitsIDiE7compareEPKDiS2_m(i32* %__s1, i32* %__s2, i64 %__n) #2 align 2 {
  %1 = alloca i32, align 4
  %2 = alloca i32*, align 8
  %3 = alloca i32*, align 8
  %4 = alloca i64, align 8
  %__i = alloca i64, align 8
  store i32* %__s1, i32** %2, align 8
  store i32* %__s2, i32** %3, align 8
  store i64 %__n, i64* %4, align 8
  store i64 0, i64* %__i, align 8
  br label %5

; <label>:5                                       ; preds = %29, %0
  %6 = load i64* %__i, align 8
  %7 = load i64* %4, align 8
  %8 = icmp ult i64 %6, %7
  br i1 %8, label %9, label %32

; <label>:9                                       ; preds = %5
  %10 = load i64* %__i, align 8
  %11 = load i32** %2, align 8
  %12 = getelementptr inbounds i32* %11, i64 %10
  %13 = load i64* %__i, align 8
  %14 = load i32** %3, align 8
  %15 = getelementptr inbounds i32* %14, i64 %13
  %16 = call zeroext i1 @_ZNSt11char_traitsIDiE2ltERKDiS2_(i32* dereferenceable(4) %12, i32* dereferenceable(4) %15) #8
  br i1 %16, label %17, label %18

; <label>:17                                      ; preds = %9
  store i32 -1, i32* %1
  br label %33

; <label>:18                                      ; preds = %9
  %19 = load i64* %__i, align 8
  %20 = load i32** %3, align 8
  %21 = getelementptr inbounds i32* %20, i64 %19
  %22 = load i64* %__i, align 8
  %23 = load i32** %2, align 8
  %24 = getelementptr inbounds i32* %23, i64 %22
  %25 = call zeroext i1 @_ZNSt11char_traitsIDiE2ltERKDiS2_(i32* dereferenceable(4) %21, i32* dereferenceable(4) %24) #8
  br i1 %25, label %26, label %27

; <label>:26                                      ; preds = %18
  store i32 1, i32* %1
  br label %33

; <label>:27                                      ; preds = %18
  br label %28

; <label>:28                                      ; preds = %27
  br label %29

; <label>:29                                      ; preds = %28
  %30 = load i64* %__i, align 8
  %31 = add i64 %30, 1
  store i64 %31, i64* %__i, align 8
  br label %5

; <label>:32                                      ; preds = %5
  store i32 0, i32* %1
  br label %33

; <label>:33                                      ; preds = %32, %26, %17
  %34 = load i32* %1
  ret i32 %34
}

; Function Attrs: nounwind uwtable
define linkonce_odr i64 @_ZNSt11char_traitsIDiE6lengthEPKDi(i32* %__s) #2 align 2 {
  %1 = alloca i32*, align 8
  %__i = alloca i64, align 8
  %2 = alloca i32, align 4
  store i32* %__s, i32** %1, align 8
  store i64 0, i64* %__i, align 8
  br label %3

; <label>:3                                       ; preds = %9, %0
  %4 = load i64* %__i, align 8
  %5 = load i32** %1, align 8
  %6 = getelementptr inbounds i32* %5, i64 %4
  store i32 0, i32* %2
  %7 = call zeroext i1 @_ZNSt11char_traitsIDiE2eqERKDiS2_(i32* dereferenceable(4) %6, i32* dereferenceable(4) %2) #8
  %8 = xor i1 %7, true
  br i1 %8, label %9, label %12

; <label>:9                                       ; preds = %3
  %10 = load i64* %__i, align 8
  %11 = add i64 %10, 1
  store i64 %11, i64* %__i, align 8
  br label %3

; <label>:12                                      ; preds = %3
  %13 = load i64* %__i, align 8
  ret i64 %13
}

; Function Attrs: nounwind uwtable
define linkonce_odr i32* @_ZNSt11char_traitsIDiE4findEPKDimRS1_(i32* %__s, i64 %__n, i32* dereferenceable(4) %__a) #2 align 2 {
  %1 = alloca i32*, align 8
  %2 = alloca i32*, align 8
  %3 = alloca i64, align 8
  %4 = alloca i32*, align 8
  %__i = alloca i64, align 8
  store i32* %__s, i32** %2, align 8
  store i64 %__n, i64* %3, align 8
  store i32* %__a, i32** %4, align 8
  store i64 0, i64* %__i, align 8
  br label %5

; <label>:5                                       ; preds = %20, %0
  %6 = load i64* %__i, align 8
  %7 = load i64* %3, align 8
  %8 = icmp ult i64 %6, %7
  br i1 %8, label %9, label %23

; <label>:9                                       ; preds = %5
  %10 = load i64* %__i, align 8
  %11 = load i32** %2, align 8
  %12 = getelementptr inbounds i32* %11, i64 %10
  %13 = load i32** %4, align 8
  %14 = call zeroext i1 @_ZNSt11char_traitsIDiE2eqERKDiS2_(i32* dereferenceable(4) %12, i32* dereferenceable(4) %13) #8
  br i1 %14, label %15, label %19

; <label>:15                                      ; preds = %9
  %16 = load i32** %2, align 8
  %17 = load i64* %__i, align 8
  %18 = getelementptr inbounds i32* %16, i64 %17
  store i32* %18, i32** %1
  br label %24

; <label>:19                                      ; preds = %9
  br label %20

; <label>:20                                      ; preds = %19
  %21 = load i64* %__i, align 8
  %22 = add i64 %21, 1
  store i64 %22, i64* %__i, align 8
  br label %5

; <label>:23                                      ; preds = %5
  store i32* null, i32** %1
  br label %24

; <label>:24                                      ; preds = %23, %15
  %25 = load i32** %1
  ret i32* %25
}

; Function Attrs: nounwind uwtable
define linkonce_odr i32* @_ZNSt11char_traitsIDiE4moveEPDiPKDim(i32* %__s1, i32* %__s2, i64 %__n) #2 align 2 {
  %1 = alloca i32*, align 8
  %2 = alloca i32*, align 8
  %3 = alloca i64, align 8
  store i32* %__s1, i32** %1, align 8
  store i32* %__s2, i32** %2, align 8
  store i64 %__n, i64* %3, align 8
  %4 = load i32** %1, align 8
  %5 = bitcast i32* %4 to i8*
  %6 = load i32** %2, align 8
  %7 = bitcast i32* %6 to i8*
  %8 = load i64* %3, align 8
  %9 = mul i64 %8, 4
  call void @llvm.memmove.p0i8.p0i8.i64(i8* %5, i8* %7, i64 %9, i32 4, i1 false)
  %10 = bitcast i8* %5 to i32*
  ret i32* %10
}

; Function Attrs: nounwind uwtable
define linkonce_odr i32* @_ZNSt11char_traitsIDiE4copyEPDiPKDim(i32* %__s1, i32* %__s2, i64 %__n) #2 align 2 {
  %1 = alloca i32*, align 8
  %2 = alloca i32*, align 8
  %3 = alloca i64, align 8
  store i32* %__s1, i32** %1, align 8
  store i32* %__s2, i32** %2, align 8
  store i64 %__n, i64* %3, align 8
  %4 = load i32** %1, align 8
  %5 = bitcast i32* %4 to i8*
  %6 = load i32** %2, align 8
  %7 = bitcast i32* %6 to i8*
  %8 = load i64* %3, align 8
  %9 = mul i64 %8, 4
  call void @llvm.memcpy.p0i8.p0i8.i64(i8* %5, i8* %7, i64 %9, i32 4, i1 false)
  %10 = bitcast i8* %5 to i32*
  ret i32* %10
}

; Function Attrs: nounwind uwtable
define linkonce_odr i32* @_ZNSt11char_traitsIDiE6assignEPDimDi(i32* %__s, i64 %__n, i32 zeroext %__a) #2 align 2 {
  %1 = alloca i32*, align 8
  %2 = alloca i64, align 8
  %3 = alloca i32, align 4
  %__i = alloca i64, align 8
  store i32* %__s, i32** %1, align 8
  store i64 %__n, i64* %2, align 8
  store i32 %__a, i32* %3, align 4
  store i64 0, i64* %__i, align 8
  br label %4

; <label>:4                                       ; preds = %12, %0
  %5 = load i64* %__i, align 8
  %6 = load i64* %2, align 8
  %7 = icmp ult i64 %5, %6
  br i1 %7, label %8, label %15

; <label>:8                                       ; preds = %4
  %9 = load i64* %__i, align 8
  %10 = load i32** %1, align 8
  %11 = getelementptr inbounds i32* %10, i64 %9
  call void @_ZNSt11char_traitsIDiE6assignERDiRKDi(i32* dereferenceable(4) %11, i32* dereferenceable(4) %3) #8
  br label %12

; <label>:12                                      ; preds = %8
  %13 = load i64* %__i, align 8
  %14 = add i64 %13, 1
  store i64 %14, i64* %__i, align 8
  br label %4

; <label>:15                                      ; preds = %4
  %16 = load i32** %1, align 8
  ret i32* %16
}

; Function Attrs: nounwind uwtable
define linkonce_odr zeroext i32 @_ZNSt11char_traitsIDiE12to_char_typeERKj(i32* dereferenceable(4) %__c) #2 align 2 {
  %1 = alloca i32*, align 8
  store i32* %__c, i32** %1, align 8
  %2 = load i32** %1, align 8
  %3 = load i32* %2, align 4
  ret i32 %3
}

; Function Attrs: nounwind uwtable
define linkonce_odr i32 @_ZNSt11char_traitsIDiE11to_int_typeERKDi(i32* dereferenceable(4) %__c) #2 align 2 {
  %1 = alloca i32*, align 8
  store i32* %__c, i32** %1, align 8
  %2 = load i32** %1, align 8
  %3 = load i32* %2, align 4
  ret i32 %3
}

; Function Attrs: nounwind uwtable
define linkonce_odr zeroext i1 @_ZNSt11char_traitsIDiE11eq_int_typeERKjS2_(i32* dereferenceable(4) %__c1, i32* dereferenceable(4) %__c2) #2 align 2 {
  %1 = alloca i32*, align 8
  %2 = alloca i32*, align 8
  store i32* %__c1, i32** %1, align 8
  store i32* %__c2, i32** %2, align 8
  %3 = load i32** %1, align 8
  %4 = load i32* %3, align 4
  %5 = load i32** %2, align 8
  %6 = load i32* %5, align 4
  %7 = icmp eq i32 %4, %6
  ret i1 %7
}

; Function Attrs: nounwind uwtable
define linkonce_odr i32 @_ZNSt11char_traitsIDiE3eofEv() #2 align 2 {
  ret i32 -1
}

; Function Attrs: nounwind uwtable
define linkonce_odr i32 @_ZNSt11char_traitsIDiE7not_eofERKj(i32* dereferenceable(4) %__c) #2 align 2 {
  %1 = alloca i32*, align 8
  %2 = alloca i32, align 4
  store i32* %__c, i32** %1, align 8
  %3 = load i32** %1, align 8
  %4 = call i32 @_ZNSt11char_traitsIDiE3eofEv() #8
  store i32 %4, i32* %2
  %5 = call zeroext i1 @_ZNSt11char_traitsIDiE11eq_int_typeERKjS2_(i32* dereferenceable(4) %3, i32* dereferenceable(4) %2) #8
  br i1 %5, label %6, label %7

; <label>:6                                       ; preds = %0
  br label %10

; <label>:7                                       ; preds = %0
  %8 = load i32** %1, align 8
  %9 = load i32* %8, align 4
  br label %10

; <label>:10                                      ; preds = %7, %6
  %11 = phi i32 [ 0, %6 ], [ %9, %7 ]
  ret i32 %11
}

; Function Attrs: inlinehint nounwind uwtable
define linkonce_odr i32 @_ZSt16__convert_from_vRKP15__locale_structPciPKcz(%struct.__locale_struct** dereferenceable(8) %__cloc, i8* %__out, i32 %__size, i8* %__fmt, ...) #0 {
  %1 = alloca %struct.__locale_struct**, align 8
  %2 = alloca i8*, align 8
  %3 = alloca i32, align 4
  %4 = alloca i8*, align 8
  %__old = alloca %struct.__locale_struct*, align 8
  %__args = alloca [1 x %struct.__va_list_tag], align 16
  %__ret = alloca i32, align 4
  store %struct.__locale_struct** %__cloc, %struct.__locale_struct*** %1, align 8
  store i8* %__out, i8** %2, align 8
  store i32 %__size, i32* %3, align 4
  store i8* %__fmt, i8** %4, align 8
  %5 = load %struct.__locale_struct*** %1, align 8
  %6 = load %struct.__locale_struct** %5, align 8
  %7 = call %struct.__locale_struct* @__uselocale(%struct.__locale_struct* %6) #8
  store %struct.__locale_struct* %7, %struct.__locale_struct** %__old, align 8
  %8 = getelementptr inbounds [1 x %struct.__va_list_tag]* %__args, i32 0, i32 0
  %9 = bitcast %struct.__va_list_tag* %8 to i8*
  call void @llvm.va_start(i8* %9)
  %10 = load i8** %2, align 8
  %11 = load i32* %3, align 4
  %12 = sext i32 %11 to i64
  %13 = load i8** %4, align 8
  %14 = getelementptr inbounds [1 x %struct.__va_list_tag]* %__args, i32 0, i32 0
  %15 = call i32 @vsnprintf(i8* %10, i64 %12, i8* %13, %struct.__va_list_tag* %14) #8
  store i32 %15, i32* %__ret, align 4
  %16 = getelementptr inbounds [1 x %struct.__va_list_tag]* %__args, i32 0, i32 0
  %17 = bitcast %struct.__va_list_tag* %16 to i8*
  call void @llvm.va_end(i8* %17)
  %18 = load %struct.__locale_struct** %__old, align 8
  %19 = call %struct.__locale_struct* @__uselocale(%struct.__locale_struct* %18) #8
  %20 = load i32* %__ret, align 4
  ret i32 %20
}

; Function Attrs: nounwind
declare %struct.__locale_struct* @__uselocale(%struct.__locale_struct*) #3

; Function Attrs: nounwind
declare void @llvm.va_start(i8*) #8

; Function Attrs: nounwind
declare i32 @vsnprintf(i8*, i64, i8*, %struct.__va_list_tag*) #3

; Function Attrs: nounwind
declare void @llvm.va_end(i8*) #8

; Function Attrs: nounwind uwtable
define linkonce_odr void @_ZN23__pthread_cleanup_classC2EPFvPvES0_(%class.__pthread_cleanup_class* %this, void (i8*)* %__fct, i8* %__arg) unnamed_addr #2 align 2 {
  %1 = alloca %class.__pthread_cleanup_class*, align 8
  %2 = alloca void (i8*)*, align 8
  %3 = alloca i8*, align 8
  store %class.__pthread_cleanup_class* %this, %class.__pthread_cleanup_class** %1, align 8
  store void (i8*)* %__fct, void (i8*)** %2, align 8
  store i8* %__arg, i8** %3, align 8
  %4 = load %class.__pthread_cleanup_class** %1
  %5 = getelementptr inbounds %class.__pthread_cleanup_class* %4, i32 0, i32 0
  %6 = load void (i8*)** %2, align 8
  store void (i8*)* %6, void (i8*)** %5, align 8
  %7 = getelementptr inbounds %class.__pthread_cleanup_class* %4, i32 0, i32 1
  %8 = load i8** %3, align 8
  store i8* %8, i8** %7, align 8
  %9 = getelementptr inbounds %class.__pthread_cleanup_class* %4, i32 0, i32 2
  store i32 1, i32* %9, align 4
  ret void
}

; Function Attrs: nounwind uwtable
define linkonce_odr void @_ZN23__pthread_cleanup_classD2Ev(%class.__pthread_cleanup_class* %this) unnamed_addr #2 align 2 {
  %1 = alloca %class.__pthread_cleanup_class*, align 8
  store %class.__pthread_cleanup_class* %this, %class.__pthread_cleanup_class** %1, align 8
  %2 = load %class.__pthread_cleanup_class** %1
  %3 = getelementptr inbounds %class.__pthread_cleanup_class* %2, i32 0, i32 2
  %4 = load i32* %3, align 4
  %5 = icmp ne i32 %4, 0
  br i1 %5, label %6, label %12

; <label>:6                                       ; preds = %0
  %7 = getelementptr inbounds %class.__pthread_cleanup_class* %2, i32 0, i32 0
  %8 = load void (i8*)** %7, align 8
  %9 = getelementptr inbounds %class.__pthread_cleanup_class* %2, i32 0, i32 1
  %10 = load i8** %9, align 8
  invoke void %8(i8* %10)
          to label %11 unwind label %13

; <label>:11                                      ; preds = %6
  br label %12

